	.file	"baij2.c"
	.text
.Ltext0:
	.type	PetscAbsScalar, @function
PetscAbsScalar:
.LFB0:
	.file 1 "/home/dpnkarthik/petsc-rnet/include/petscmath.h"
	.loc 1 134 0
	.cfi_startproc
	pushq	%rbp
	.cfi_def_cfa_offset 16
	.cfi_offset 6, -16
	movq	%rsp, %rbp
	.cfi_def_cfa_register 6
	vmovsd	%xmm0, -8(%rbp)
	.loc 1 134 0
	vxorpd	%xmm0, %xmm0, %xmm0
	vucomisd	-8(%rbp), %xmm0
	seta	%al
	testb	%al, %al
	je	.L2
	vmovsd	-8(%rbp), %xmm1
	vmovsd	.LC1(%rip), %xmm0
	vxorpd	%xmm1, %xmm0, %xmm0
	jmp	.L3
.L2:
	vmovsd	-8(%rbp), %xmm0
.L3:
	vmovsd	%xmm0, -16(%rbp)
	movq	-16(%rbp), %rax
	movq	%rax, -16(%rbp)
	vmovsd	-16(%rbp), %xmm0
	leave
	.cfi_def_cfa 7, 8
	ret
	.cfi_endproc
.LFE0:
	.size	PetscAbsScalar, .-PetscAbsScalar
	.section	.rodata
	.align 8
.LC2:
	.string	"/home/dpnkarthik/petsc-rnet/include/petscsys.h"
.LC3:
	.string	"src/mat/impls/baij/seq/"
	.text
	.type	PetscMemcpy, @function
PetscMemcpy:
.LFB6:
	.file 2 "/home/dpnkarthik/petsc-rnet/include/petscsys.h"
	.loc 2 1763 0
	.cfi_startproc
	pushq	%rbp
	.cfi_def_cfa_offset 16
	.cfi_offset 6, -16
	movq	%rsp, %rbp
	.cfi_def_cfa_register 6
	subq	$32, %rsp
	movq	%rdi, -8(%rbp)
	movq	%rsi, -16(%rbp)
	movq	%rdx, -24(%rbp)
	.loc 2 1771 0
	movq	petscstack(%rip), %rax
	testq	%rax, %rax
	je	.L11
	movq	petscstack(%rip), %rax
	movl	1792(%rax), %eax
	cmpl	$63, %eax
	jg	.L12
	movq	petscstack(%rip), %rax
	movq	petscstack(%rip), %rdx
	movl	1792(%rdx), %edx
	movslq	%edx, %rdx
	movq	$__func__.12688, (%rax,%rdx,8)
	movq	petscstack(%rip), %rax
	movq	petscstack(%rip), %rdx
	movl	1792(%rdx), %edx
	movslq	%edx, %rdx
	addq	$64, %rdx
	movq	$.LC2, (%rax,%rdx,8)
	movq	petscstack(%rip), %rax
	movq	petscstack(%rip), %rdx
	movl	1792(%rdx), %edx
	movslq	%edx, %rdx
	subq	$-128, %rdx
	movq	$.LC3, (%rax,%rdx,8)
	movq	petscstack(%rip), %rax
	movq	petscstack(%rip), %rdx
	movl	1792(%rdx), %edx
	movslq	%edx, %rdx
	addq	$384, %rdx
	movl	$1771, (%rax,%rdx,4)
	movq	petscstack(%rip), %rax
	movl	1792(%rax), %edx
	addl	$1, %edx
	movl	%edx, 1792(%rax)
	jmp	.L10
.L11:
	nop
	jmp	.L10
.L12:
	nop
.L10:
	.loc 2 1773 0
	movq	-8(%rbp), %rax
	cmpq	-16(%rbp), %rax
	je	.L7
	.loc 2 1798 0
	movq	-24(%rbp), %rdx
	movq	-16(%rbp), %rcx
	movq	-8(%rbp), %rax
	movq	%rcx, %rsi
	movq	%rax, %rdi
	call	memcpy
.L7:
	.loc 2 1801 0
	movq	petscstack(%rip), %rax
	testq	%rax, %rax
	je	.L8
	movq	petscstack(%rip), %rax
	movl	1792(%rax), %eax
	testl	%eax, %eax
	jle	.L8
	movq	petscstack(%rip), %rax
	movl	1792(%rax), %edx
	subl	$1, %edx
	movl	%edx, 1792(%rax)
	movq	petscstack(%rip), %rax
	movq	petscstack(%rip), %rdx
	movl	1792(%rdx), %edx
	movslq	%edx, %rdx
	movq	$0, (%rax,%rdx,8)
	movq	petscstack(%rip), %rax
	movq	petscstack(%rip), %rdx
	movl	1792(%rdx), %edx
	movslq	%edx, %rdx
	addq	$64, %rdx
	movq	$0, (%rax,%rdx,8)
	movq	petscstack(%rip), %rax
	movq	petscstack(%rip), %rdx
	movl	1792(%rdx), %edx
	movslq	%edx, %rdx
	subq	$-128, %rdx
	movq	$0, (%rax,%rdx,8)
	movq	petscstack(%rip), %rax
	movq	petscstack(%rip), %rdx
	movl	1792(%rdx), %edx
	movslq	%edx, %rdx
	addq	$384, %rdx
	movl	$0, (%rax,%rdx,4)
.L8:
	movl	$0, %eax
	.loc 2 1802 0
	leave
	.cfi_def_cfa 7, 8
	ret
	.cfi_endproc
.LFE6:
	.size	PetscMemcpy, .-PetscMemcpy
	.type	PetscMemzero, @function
PetscMemzero:
.LFB7:
	.loc 2 1827 0
	.cfi_startproc
	pushq	%rbp
	.cfi_def_cfa_offset 16
	.cfi_offset 6, -16
	movq	%rsp, %rbp
	.cfi_def_cfa_register 6
	subq	$16, %rsp
	movq	%rdi, -8(%rbp)
	movq	%rsi, -16(%rbp)
	.loc 2 1828 0
	cmpq	$0, -16(%rbp)
	je	.L14
	.loc 2 1847 0
	movq	-16(%rbp), %rdx
	movq	-8(%rbp), %rax
	movl	$0, %esi
	movq	%rax, %rdi
	call	memset
.L14:
	.loc 2 1853 0
	movl	$0, %eax
	.loc 2 1854 0
	leave
	.cfi_def_cfa 7, 8
	ret
	.cfi_endproc
.LFE7:
	.size	PetscMemzero, .-PetscMemzero
	.section	.rodata
	.align 8
.LC4:
	.string	"/home/dpnkarthik/petsc-rnet/include/private/vecimpl.h"
.LC5:
	.string	" "
	.text
	.type	VecGetArrayRead, @function
VecGetArrayRead:
.LFB15:
	.file 3 "/home/dpnkarthik/petsc-rnet/include/private/vecimpl.h"
	.loc 3 278 0
	.cfi_startproc
	pushq	%rbp
	.cfi_def_cfa_offset 16
	.cfi_offset 6, -16
	movq	%rsp, %rbp
	.cfi_def_cfa_register 6
	subq	$48, %rsp
	movq	%rdi, -24(%rbp)
	movq	%rsi, -32(%rbp)
	.loc 3 281 0
	movq	petscstack(%rip), %rax
	testq	%rax, %rax
	je	.L26
	movq	petscstack(%rip), %rax
	movl	1792(%rax), %eax
	cmpl	$63, %eax
	jg	.L27
	movq	petscstack(%rip), %rax
	movq	petscstack(%rip), %rdx
	movl	1792(%rdx), %edx
	movslq	%edx, %rdx
	movq	$__func__.15175, (%rax,%rdx,8)
	movq	petscstack(%rip), %rax
	movq	petscstack(%rip), %rdx
	movl	1792(%rdx), %edx
	movslq	%edx, %rdx
	addq	$64, %rdx
	movq	$.LC4, (%rax,%rdx,8)
	movq	petscstack(%rip), %rax
	movq	petscstack(%rip), %rdx
	movl	1792(%rdx), %edx
	movslq	%edx, %rdx
	subq	$-128, %rdx
	movq	$.LC3, (%rax,%rdx,8)
	movq	petscstack(%rip), %rax
	movq	petscstack(%rip), %rdx
	movl	1792(%rdx), %edx
	movslq	%edx, %rdx
	addq	$384, %rdx
	movl	$281, (%rax,%rdx,4)
	movq	petscstack(%rip), %rax
	movl	1792(%rax), %edx
	addl	$1, %edx
	movl	%edx, 1792(%rax)
	jmp	.L25
.L26:
	nop
	jmp	.L25
.L27:
	nop
.L25:
	.loc 3 282 0
	movq	-24(%rbp), %rax
	movl	816(%rax), %eax
	testl	%eax, %eax
	je	.L18
	.loc 3 284 0
	movq	-24(%rbp), %rax
	movl	820(%rax), %eax
	cmpl	$1, %eax
	je	.L19
	movq	-24(%rbp), %rax
	movq	464(%rax), %rax
	movq	(%rax), %rax
	testq	%rax, %rax
	jne	.L20
.L19:
	.loc 3 285 0
	movq	-24(%rbp), %rax
	movq	%rax, %rdi
	call	VecCUSPCopyFromGPU
	movl	%eax, -4(%rbp)
	cmpl	$0, -4(%rbp)
	setne	%al
	movzbl	%al, %eax
	testq	%rax, %rax
	je	.L20
	movl	-4(%rbp), %eax
	movq	$.LC5, 8(%rsp)
	movl	$1, (%rsp)
	movl	%eax, %r9d
	movl	$.LC3, %r8d
	movl	$.LC4, %ecx
	movl	$__func__.15175, %edx
	movl	$285, %esi
	movl	$1140850689, %edi
	movl	$0, %eax
	call	PetscError
	jmp	.L21
.L20:
	.loc 3 288 0
	movq	-24(%rbp), %rax
	movq	464(%rax), %rax
	movq	(%rax), %rdx
	movq	-32(%rbp), %rax
	movq	%rdx, (%rax)
	jmp	.L22
.L18:
	.loc 3 290 0
	movq	-24(%rbp), %rax
	movq	448(%rax), %rax
	movq	184(%rax), %rcx
	movq	-32(%rbp), %rdx
	movq	-24(%rbp), %rax
	movq	%rdx, %rsi
	movq	%rax, %rdi
	call	*%rcx
	movl	%eax, -4(%rbp)
	cmpl	$0, -4(%rbp)
	setne	%al
	movzbl	%al, %eax
	testq	%rax, %rax
	je	.L22
	movl	-4(%rbp), %eax
	movq	$.LC5, 8(%rsp)
	movl	$1, (%rsp)
	movl	%eax, %r9d
	movl	$.LC3, %r8d
	movl	$.LC4, %ecx
	movl	$__func__.15175, %edx
	movl	$290, %esi
	movl	$1140850689, %edi
	movl	$0, %eax
	call	PetscError
	jmp	.L21
.L22:
	.loc 3 292 0
	movq	petscstack(%rip), %rax
	testq	%rax, %rax
	je	.L23
	movq	petscstack(%rip), %rax
	movl	1792(%rax), %eax
	testl	%eax, %eax
	jle	.L23
	movq	petscstack(%rip), %rax
	movl	1792(%rax), %edx
	subl	$1, %edx
	movl	%edx, 1792(%rax)
	movq	petscstack(%rip), %rax
	movq	petscstack(%rip), %rdx
	movl	1792(%rdx), %edx
	movslq	%edx, %rdx
	movq	$0, (%rax,%rdx,8)
	movq	petscstack(%rip), %rax
	movq	petscstack(%rip), %rdx
	movl	1792(%rdx), %edx
	movslq	%edx, %rdx
	addq	$64, %rdx
	movq	$0, (%rax,%rdx,8)
	movq	petscstack(%rip), %rax
	movq	petscstack(%rip), %rdx
	movl	1792(%rdx), %edx
	movslq	%edx, %rdx
	subq	$-128, %rdx
	movq	$0, (%rax,%rdx,8)
	movq	petscstack(%rip), %rax
	movq	petscstack(%rip), %rdx
	movl	1792(%rdx), %edx
	movslq	%edx, %rdx
	addq	$384, %rdx
	movl	$0, (%rax,%rdx,4)
.L23:
	movl	$0, %eax
.L21:
	.loc 3 293 0
	leave
	.cfi_def_cfa 7, 8
	ret
	.cfi_endproc
.LFE15:
	.size	VecGetArrayRead, .-VecGetArrayRead
	.type	VecRestoreArrayRead, @function
VecRestoreArrayRead:
.LFB16:
	.loc 3 298 0
	.cfi_startproc
	pushq	%rbp
	.cfi_def_cfa_offset 16
	.cfi_offset 6, -16
	movq	%rsp, %rbp
	.cfi_def_cfa_register 6
	subq	$48, %rsp
	movq	%rdi, -24(%rbp)
	movq	%rsi, -32(%rbp)
	.loc 3 301 0
	movq	petscstack(%rip), %rax
	testq	%rax, %rax
	je	.L36
	movq	petscstack(%rip), %rax
	movl	1792(%rax), %eax
	cmpl	$63, %eax
	jg	.L37
	movq	petscstack(%rip), %rax
	movq	petscstack(%rip), %rdx
	movl	1792(%rdx), %edx
	movslq	%edx, %rdx
	movq	$__func__.15257, (%rax,%rdx,8)
	movq	petscstack(%rip), %rax
	movq	petscstack(%rip), %rdx
	movl	1792(%rdx), %edx
	movslq	%edx, %rdx
	addq	$64, %rdx
	movq	$.LC4, (%rax,%rdx,8)
	movq	petscstack(%rip), %rax
	movq	petscstack(%rip), %rdx
	movl	1792(%rdx), %edx
	movslq	%edx, %rdx
	subq	$-128, %rdx
	movq	$.LC3, (%rax,%rdx,8)
	movq	petscstack(%rip), %rax
	movq	petscstack(%rip), %rdx
	movl	1792(%rdx), %edx
	movslq	%edx, %rdx
	addq	$384, %rdx
	movl	$301, (%rax,%rdx,4)
	movq	petscstack(%rip), %rax
	movl	1792(%rax), %edx
	addl	$1, %edx
	movl	%edx, 1792(%rax)
	jmp	.L35
.L36:
	nop
	jmp	.L35
.L37:
	nop
.L35:
	.loc 3 302 0
	movq	-24(%rbp), %rax
	movl	816(%rax), %eax
	testl	%eax, %eax
	je	.L30
	.loc 3 304 0
	movq	-24(%rbp), %rax
	movl	820(%rax), %eax
	testl	%eax, %eax
	je	.L31
	.loc 3 305 0
	movq	-24(%rbp), %rax
	movl	$3, 820(%rax)
	jmp	.L31
.L30:
	.loc 3 309 0
	movq	-24(%rbp), %rax
	movq	448(%rax), %rax
	movq	208(%rax), %rcx
	movq	-32(%rbp), %rdx
	movq	-24(%rbp), %rax
	movq	%rdx, %rsi
	movq	%rax, %rdi
	call	*%rcx
	movl	%eax, -4(%rbp)
	cmpl	$0, -4(%rbp)
	setne	%al
	movzbl	%al, %eax
	testq	%rax, %rax
	je	.L31
	movl	-4(%rbp), %eax
	movq	$.LC5, 8(%rsp)
	movl	$1, (%rsp)
	movl	%eax, %r9d
	movl	$.LC3, %r8d
	movl	$.LC4, %ecx
	movl	$__func__.15257, %edx
	movl	$309, %esi
	movl	$1140850689, %edi
	movl	$0, %eax
	call	PetscError
	jmp	.L32
.L31:
	.loc 3 311 0
	movq	petscstack(%rip), %rax
	testq	%rax, %rax
	je	.L33
	movq	petscstack(%rip), %rax
	movl	1792(%rax), %eax
	testl	%eax, %eax
	jle	.L33
	movq	petscstack(%rip), %rax
	movl	1792(%rax), %edx
	subl	$1, %edx
	movl	%edx, 1792(%rax)
	movq	petscstack(%rip), %rax
	movq	petscstack(%rip), %rdx
	movl	1792(%rdx), %edx
	movslq	%edx, %rdx
	movq	$0, (%rax,%rdx,8)
	movq	petscstack(%rip), %rax
	movq	petscstack(%rip), %rdx
	movl	1792(%rdx), %edx
	movslq	%edx, %rdx
	addq	$64, %rdx
	movq	$0, (%rax,%rdx,8)
	movq	petscstack(%rip), %rax
	movq	petscstack(%rip), %rdx
	movl	1792(%rdx), %edx
	movslq	%edx, %rdx
	subq	$-128, %rdx
	movq	$0, (%rax,%rdx,8)
	movq	petscstack(%rip), %rax
	movq	petscstack(%rip), %rdx
	movl	1792(%rdx), %edx
	movslq	%edx, %rdx
	addq	$384, %rdx
	movl	$0, (%rax,%rdx,4)
.L33:
	movl	$0, %eax
.L32:
	.loc 3 312 0
	leave
	.cfi_def_cfa 7, 8
	ret
	.cfi_endproc
.LFE16:
	.size	VecRestoreArrayRead, .-VecRestoreArrayRead
	.type	VecGetArray, @function
VecGetArray:
.LFB17:
	.loc 3 317 0
	.cfi_startproc
	pushq	%rbp
	.cfi_def_cfa_offset 16
	.cfi_offset 6, -16
	movq	%rsp, %rbp
	.cfi_def_cfa_register 6
	subq	$48, %rsp
	movq	%rdi, -24(%rbp)
	movq	%rsi, -32(%rbp)
	.loc 3 320 0
	movq	petscstack(%rip), %rax
	testq	%rax, %rax
	je	.L48
	movq	petscstack(%rip), %rax
	movl	1792(%rax), %eax
	cmpl	$63, %eax
	jg	.L49
	movq	petscstack(%rip), %rax
	movq	petscstack(%rip), %rdx
	movl	1792(%rdx), %edx
	movslq	%edx, %rdx
	movq	$__func__.15326, (%rax,%rdx,8)
	movq	petscstack(%rip), %rax
	movq	petscstack(%rip), %rdx
	movl	1792(%rdx), %edx
	movslq	%edx, %rdx
	addq	$64, %rdx
	movq	$.LC4, (%rax,%rdx,8)
	movq	petscstack(%rip), %rax
	movq	petscstack(%rip), %rdx
	movl	1792(%rdx), %edx
	movslq	%edx, %rdx
	subq	$-128, %rdx
	movq	$.LC3, (%rax,%rdx,8)
	movq	petscstack(%rip), %rax
	movq	petscstack(%rip), %rdx
	movl	1792(%rdx), %edx
	movslq	%edx, %rdx
	addq	$384, %rdx
	movl	$320, (%rax,%rdx,4)
	movq	petscstack(%rip), %rax
	movl	1792(%rax), %edx
	addl	$1, %edx
	movl	%edx, 1792(%rax)
	jmp	.L47
.L48:
	nop
	jmp	.L47
.L49:
	nop
.L47:
	.loc 3 321 0
	movq	-24(%rbp), %rax
	movl	816(%rax), %eax
	testl	%eax, %eax
	je	.L40
	.loc 3 323 0
	movq	-24(%rbp), %rax
	movl	820(%rax), %eax
	cmpl	$1, %eax
	je	.L41
	movq	-24(%rbp), %rax
	movq	464(%rax), %rax
	movq	(%rax), %rax
	testq	%rax, %rax
	jne	.L42
.L41:
	.loc 3 324 0
	movq	-24(%rbp), %rax
	movq	%rax, %rdi
	call	VecCUSPCopyFromGPU
	movl	%eax, -4(%rbp)
	cmpl	$0, -4(%rbp)
	setne	%al
	movzbl	%al, %eax
	testq	%rax, %rax
	je	.L42
	movl	-4(%rbp), %eax
	movq	$.LC5, 8(%rsp)
	movl	$1, (%rsp)
	movl	%eax, %r9d
	movl	$.LC3, %r8d
	movl	$.LC4, %ecx
	movl	$__func__.15326, %edx
	movl	$324, %esi
	movl	$1140850689, %edi
	movl	$0, %eax
	call	PetscError
	jmp	.L43
.L42:
	.loc 3 327 0
	movq	-24(%rbp), %rax
	movq	464(%rax), %rax
	movq	(%rax), %rdx
	movq	-32(%rbp), %rax
	movq	%rdx, (%rax)
	jmp	.L44
.L40:
	.loc 3 329 0
	movq	-24(%rbp), %rax
	movq	448(%rax), %rax
	movq	184(%rax), %rcx
	movq	-32(%rbp), %rdx
	movq	-24(%rbp), %rax
	movq	%rdx, %rsi
	movq	%rax, %rdi
	call	*%rcx
	movl	%eax, -4(%rbp)
	cmpl	$0, -4(%rbp)
	setne	%al
	movzbl	%al, %eax
	testq	%rax, %rax
	je	.L44
	movl	-4(%rbp), %eax
	movq	$.LC5, 8(%rsp)
	movl	$1, (%rsp)
	movl	%eax, %r9d
	movl	$.LC3, %r8d
	movl	$.LC4, %ecx
	movl	$__func__.15326, %edx
	movl	$329, %esi
	movl	$1140850689, %edi
	movl	$0, %eax
	call	PetscError
	jmp	.L43
.L44:
	.loc 3 331 0
	movq	petscstack(%rip), %rax
	testq	%rax, %rax
	je	.L45
	movq	petscstack(%rip), %rax
	movl	1792(%rax), %eax
	testl	%eax, %eax
	jle	.L45
	movq	petscstack(%rip), %rax
	movl	1792(%rax), %edx
	subl	$1, %edx
	movl	%edx, 1792(%rax)
	movq	petscstack(%rip), %rax
	movq	petscstack(%rip), %rdx
	movl	1792(%rdx), %edx
	movslq	%edx, %rdx
	movq	$0, (%rax,%rdx,8)
	movq	petscstack(%rip), %rax
	movq	petscstack(%rip), %rdx
	movl	1792(%rdx), %edx
	movslq	%edx, %rdx
	addq	$64, %rdx
	movq	$0, (%rax,%rdx,8)
	movq	petscstack(%rip), %rax
	movq	petscstack(%rip), %rdx
	movl	1792(%rdx), %edx
	movslq	%edx, %rdx
	subq	$-128, %rdx
	movq	$0, (%rax,%rdx,8)
	movq	petscstack(%rip), %rax
	movq	petscstack(%rip), %rdx
	movl	1792(%rdx), %edx
	movslq	%edx, %rdx
	addq	$384, %rdx
	movl	$0, (%rax,%rdx,4)
.L45:
	movl	$0, %eax
.L43:
	.loc 3 332 0
	leave
	.cfi_def_cfa 7, 8
	ret
	.cfi_endproc
.LFE17:
	.size	VecGetArray, .-VecGetArray
	.type	VecRestoreArray, @function
VecRestoreArray:
.LFB18:
	.loc 3 337 0
	.cfi_startproc
	pushq	%rbp
	.cfi_def_cfa_offset 16
	.cfi_offset 6, -16
	movq	%rsp, %rbp
	.cfi_def_cfa_register 6
	subq	$48, %rsp
	movq	%rdi, -24(%rbp)
	movq	%rsi, -32(%rbp)
	.loc 3 340 0
	movq	petscstack(%rip), %rax
	testq	%rax, %rax
	je	.L59
	movq	petscstack(%rip), %rax
	movl	1792(%rax), %eax
	cmpl	$63, %eax
	jg	.L60
	movq	petscstack(%rip), %rax
	movq	petscstack(%rip), %rdx
	movl	1792(%rdx), %edx
	movslq	%edx, %rdx
	movq	$__func__.15408, (%rax,%rdx,8)
	movq	petscstack(%rip), %rax
	movq	petscstack(%rip), %rdx
	movl	1792(%rdx), %edx
	movslq	%edx, %rdx
	addq	$64, %rdx
	movq	$.LC4, (%rax,%rdx,8)
	movq	petscstack(%rip), %rax
	movq	petscstack(%rip), %rdx
	movl	1792(%rdx), %edx
	movslq	%edx, %rdx
	subq	$-128, %rdx
	movq	$.LC3, (%rax,%rdx,8)
	movq	petscstack(%rip), %rax
	movq	petscstack(%rip), %rdx
	movl	1792(%rdx), %edx
	movslq	%edx, %rdx
	addq	$384, %rdx
	movl	$340, (%rax,%rdx,4)
	movq	petscstack(%rip), %rax
	movl	1792(%rax), %edx
	addl	$1, %edx
	movl	%edx, 1792(%rax)
	jmp	.L58
.L59:
	nop
	jmp	.L58
.L60:
	nop
.L58:
	.loc 3 341 0
	movq	-24(%rbp), %rax
	movl	816(%rax), %eax
	testl	%eax, %eax
	je	.L52
	.loc 3 343 0
	movq	-24(%rbp), %rax
	movl	820(%rax), %eax
	testl	%eax, %eax
	je	.L53
	.loc 3 344 0
	movq	-24(%rbp), %rax
	movl	$2, 820(%rax)
	jmp	.L53
.L52:
	.loc 3 348 0
	movq	-24(%rbp), %rax
	movq	448(%rax), %rax
	movq	208(%rax), %rcx
	movq	-32(%rbp), %rdx
	movq	-24(%rbp), %rax
	movq	%rdx, %rsi
	movq	%rax, %rdi
	call	*%rcx
	movl	%eax, -4(%rbp)
	cmpl	$0, -4(%rbp)
	setne	%al
	movzbl	%al, %eax
	testq	%rax, %rax
	je	.L53
	movl	-4(%rbp), %eax
	movq	$.LC5, 8(%rsp)
	movl	$1, (%rsp)
	movl	%eax, %r9d
	movl	$.LC3, %r8d
	movl	$.LC4, %ecx
	movl	$__func__.15408, %edx
	movl	$348, %esi
	movl	$1140850689, %edi
	movl	$0, %eax
	call	PetscError
	jmp	.L54
.L53:
	.loc 3 350 0
	movq	-24(%rbp), %rax
	movl	164(%rax), %edx
	addl	$1, %edx
	movl	%edx, 164(%rax)
	movl	$0, -4(%rbp)
	cmpl	$0, -4(%rbp)
	setne	%al
	movzbl	%al, %eax
	testq	%rax, %rax
	je	.L55
	movl	-4(%rbp), %eax
	movq	$.LC5, 8(%rsp)
	movl	$1, (%rsp)
	movl	%eax, %r9d
	movl	$.LC3, %r8d
	movl	$.LC4, %ecx
	movl	$__func__.15408, %edx
	movl	$350, %esi
	movl	$1140850689, %edi
	movl	$0, %eax
	call	PetscError
	jmp	.L54
.L55:
	.loc 3 351 0
	movq	petscstack(%rip), %rax
	testq	%rax, %rax
	je	.L56
	movq	petscstack(%rip), %rax
	movl	1792(%rax), %eax
	testl	%eax, %eax
	jle	.L56
	movq	petscstack(%rip), %rax
	movl	1792(%rax), %edx
	subl	$1, %edx
	movl	%edx, 1792(%rax)
	movq	petscstack(%rip), %rax
	movq	petscstack(%rip), %rdx
	movl	1792(%rdx), %edx
	movslq	%edx, %rdx
	movq	$0, (%rax,%rdx,8)
	movq	petscstack(%rip), %rax
	movq	petscstack(%rip), %rdx
	movl	1792(%rdx), %edx
	movslq	%edx, %rdx
	addq	$64, %rdx
	movq	$0, (%rax,%rdx,8)
	movq	petscstack(%rip), %rax
	movq	petscstack(%rip), %rdx
	movl	1792(%rdx), %edx
	movslq	%edx, %rdx
	subq	$-128, %rdx
	movq	$0, (%rax,%rdx,8)
	movq	petscstack(%rip), %rax
	movq	petscstack(%rip), %rdx
	movl	1792(%rdx), %edx
	movslq	%edx, %rdx
	addq	$384, %rdx
	movl	$0, (%rax,%rdx,4)
.L56:
	movl	$0, %eax
.L54:
	.loc 3 352 0
	leave
	.cfi_def_cfa 7, 8
	ret
	.cfi_endproc
.LFE18:
	.size	VecRestoreArray, .-VecRestoreArray
	.comm	mtNexts,4,4
	.comm	mtNexti,4,4
	.comm	s_seeds,2496,32
	.section	.rodata
.LC6:
	.string	"baij2.c"
.LC7:
	.string	"Negative overlap specified"
.LC8:
	.string	"index greater than mat-dim"
	.text
.globl MatIncreaseOverlap_SeqBAIJ
	.type	MatIncreaseOverlap_SeqBAIJ, @function
MatIncreaseOverlap_SeqBAIJ:
.LFB62:
	.file 4 "baij2.c"
	.loc 4 10 0
	.cfi_startproc
	pushq	%rbp
	.cfi_def_cfa_offset 16
	.cfi_offset 6, -16
	movq	%rsp, %rbp
	.cfi_def_cfa_register 6
	pushq	%rbx
	subq	$184, %rsp
	movq	%rdi, -152(%rbp)
	movl	%esi, -156(%rbp)
	movq	%rdx, -168(%rbp)
	movl	%ecx, -172(%rbp)
	.loc 4 11 0
	movq	-152(%rbp), %rax
	movq	472(%rax), %rax
	movq	%rax, -96(%rbp)
	.loc 4 18 0
	movq	petscstack(%rip), %rax
	testq	%rax, %rax
	je	.L115
	.cfi_offset 3, -24
	movq	petscstack(%rip), %rax
	movl	1792(%rax), %eax
	cmpl	$63, %eax
	jg	.L116
	movq	petscstack(%rip), %rax
	movq	petscstack(%rip), %rdx
	movl	1792(%rdx), %edx
	movslq	%edx, %rdx
	movq	$__func__.24258, (%rax,%rdx,8)
	movq	petscstack(%rip), %rax
	movq	petscstack(%rip), %rdx
	movl	1792(%rdx), %edx
	movslq	%edx, %rdx
	addq	$64, %rdx
	movq	$.LC6, (%rax,%rdx,8)
	movq	petscstack(%rip), %rax
	movq	petscstack(%rip), %rdx
	movl	1792(%rdx), %edx
	movslq	%edx, %rdx
	subq	$-128, %rdx
	movq	$.LC3, (%rax,%rdx,8)
	movq	petscstack(%rip), %rax
	movq	petscstack(%rip), %rdx
	movl	1792(%rdx), %edx
	movslq	%edx, %rdx
	addq	$384, %rdx
	movl	$18, (%rax,%rdx,4)
	movq	petscstack(%rip), %rax
	movl	1792(%rax), %edx
	addl	$1, %edx
	movl	%edx, 1792(%rax)
	jmp	.L114
.L115:
	nop
	jmp	.L114
.L116:
	nop
.L114:
	.loc 4 19 0
	movq	-96(%rbp), %rax
	movl	228(%rax), %eax
	movl	%eax, -64(%rbp)
	.loc 4 20 0
	movq	-96(%rbp), %rax
	movq	136(%rax), %rax
	movq	%rax, -40(%rbp)
	.loc 4 21 0
	movq	-96(%rbp), %rax
	movq	144(%rax), %rax
	movq	%rax, -32(%rbp)
	.loc 4 22 0
	movq	-152(%rbp), %rax
	movq	456(%rax), %rax
	movl	32(%rax), %eax
	movl	%eax, -20(%rbp)
	.loc 4 24 0
	cmpl	$0, -172(%rbp)
	jns	.L63
	movq	$.LC7, 8(%rsp)
	movl	$0, (%rsp)
	movl	$63, %r9d
	movl	$.LC3, %r8d
	movl	$.LC6, %ecx
	movl	$__func__.24258, %edx
	movl	$24, %esi
	movl	$1140850689, %edi
	movl	$0, %eax
	call	PetscError
	jmp	.L64
.L63:
	.loc 4 26 0
	movl	-64(%rbp), %eax
	addl	$15, %eax
	cmpl	$7, %eax
	jbe	.L65
	movq	PetscTrMalloc(%rip), %rbx
	leaq	-136(%rbp), %rdx
	movl	-64(%rbp), %eax
	leal	7(%rax), %ecx
	testl	%eax, %eax
	cmovs	%ecx, %eax
	sarl	$3, %eax
	addl	$1, %eax
	cltq
	movq	%rdx, %r9
	movl	$.LC3, %r8d
	movl	$.LC6, %ecx
	movl	$__func__.24258, %edx
	movl	$26, %esi
	movq	%rax, %rdi
	call	*%rbx
	testl	%eax, %eax
	jne	.L66
	jmp	.L67
.L65:
	movq	$0, -136(%rbp)
.L67:
	movl	-64(%rbp), %eax
	leal	7(%rax), %edx
	testl	%eax, %eax
	cmovs	%edx, %eax
	sarl	$3, %eax
	addl	$1, %eax
	movslq	%eax, %rdx
	movq	-136(%rbp), %rax
	movq	%rdx, %rsi
	movq	%rax, %rdi
	call	PetscMemzero
	testl	%eax, %eax
	je	.L68
.L66:
	movl	$1, %eax
	jmp	.L69
.L68:
	movl	$0, %eax
.L69:
	movl	%eax, -88(%rbp)
	cmpl	$0, -88(%rbp)
	setne	%al
	movzbl	%al, %eax
	testq	%rax, %rax
	je	.L70
	movl	-88(%rbp), %eax
	movq	$.LC5, 8(%rsp)
	movl	$1, (%rsp)
	movl	%eax, %r9d
	movl	$.LC3, %r8d
	movl	$.LC6, %ecx
	movl	$__func__.24258, %edx
	movl	$26, %esi
	movl	$1140850689, %edi
	movl	$0, %eax
	call	PetscError
	jmp	.L64
.L70:
	.loc 4 27 0
	movl	-64(%rbp), %eax
	addl	$1, %eax
	cltq
	salq	$2, %rax
	testq	%rax, %rax
	je	.L71
	movq	PetscTrMalloc(%rip), %rax
	leaq	-112(%rbp), %rdx
	movl	-64(%rbp), %ecx
	addl	$1, %ecx
	movslq	%ecx, %rcx
	leaq	0(,%rcx,4), %rbx
	movq	%rdx, %r9
	movl	$.LC3, %r8d
	movl	$.LC6, %ecx
	movl	$__func__.24258, %edx
	movl	$27, %esi
	movq	%rbx, %rdi
	call	*%rax
	jmp	.L72
.L71:
	movq	$0, -112(%rbp)
	movl	$0, %eax
.L72:
	movl	%eax, -88(%rbp)
	cmpl	$0, -88(%rbp)
	setne	%al
	movzbl	%al, %eax
	testq	%rax, %rax
	je	.L73
	movl	-88(%rbp), %eax
	movq	$.LC5, 8(%rsp)
	movl	$1, (%rsp)
	movl	%eax, %r9d
	movl	$.LC3, %r8d
	movl	$.LC6, %ecx
	movl	$__func__.24258, %edx
	movl	$27, %esi
	movl	$1140850689, %edi
	movl	$0, %eax
	call	PetscError
	jmp	.L64
.L73:
	.loc 4 28 0
	movq	-152(%rbp), %rax
	movq	456(%rax), %rax
	movl	8(%rax), %eax
	addl	$1, %eax
	cltq
	salq	$2, %rax
	testq	%rax, %rax
	je	.L74
	movq	PetscTrMalloc(%rip), %rbx
	leaq	-128(%rbp), %rdx
	movq	-152(%rbp), %rax
	movq	456(%rax), %rax
	movl	8(%rax), %eax
	addl	$1, %eax
	cltq
	salq	$2, %rax
	movq	%rdx, %r9
	movl	$.LC3, %r8d
	movl	$.LC6, %ecx
	movl	$__func__.24258, %edx
	movl	$28, %esi
	movq	%rax, %rdi
	call	*%rbx
	jmp	.L75
.L74:
	movq	$0, -128(%rbp)
	movl	$0, %eax
.L75:
	movl	%eax, -88(%rbp)
	cmpl	$0, -88(%rbp)
	setne	%al
	movzbl	%al, %eax
	testq	%rax, %rax
	je	.L76
	movl	-88(%rbp), %eax
	movq	$.LC5, 8(%rsp)
	movl	$1, (%rsp)
	movl	%eax, %r9d
	movl	$.LC3, %r8d
	movl	$.LC6, %ecx
	movl	$__func__.24258, %edx
	movl	$28, %esi
	movl	$1140850689, %edi
	movl	$0, %eax
	call	PetscError
	jmp	.L64
.L76:
	.loc 4 30 0
	movl	$0, -80(%rbp)
	jmp	.L77
.L99:
	.loc 4 32 0
	movl	$0, -60(%rbp)
	.loc 4 33 0
	movl	-64(%rbp), %eax
	leal	7(%rax), %edx
	testl	%eax, %eax
	cmovs	%edx, %eax
	sarl	$3, %eax
	addl	$1, %eax
	movslq	%eax, %rdx
	movq	-136(%rbp), %rax
	movq	%rdx, %rsi
	movq	%rax, %rdi
	call	PetscMemzero
	movl	%eax, -88(%rbp)
	cmpl	$0, -88(%rbp)
	setne	%al
	movzbl	%al, %eax
	testq	%rax, %rax
	je	.L78
	movl	-88(%rbp), %eax
	movq	$.LC5, 8(%rsp)
	movl	$1, (%rsp)
	movl	%eax, %r9d
	movl	$.LC3, %r8d
	movl	$.LC6, %ecx
	movl	$__func__.24258, %edx
	movl	$33, %esi
	movl	$1140850689, %edi
	movl	$0, %eax
	call	PetscError
	jmp	.L64
.L78:
	.loc 4 36 0
	movl	-80(%rbp), %eax
	cltq
	salq	$3, %rax
	addq	-168(%rbp), %rax
	movq	(%rax), %rax
	leaq	-120(%rbp), %rdx
	movq	%rdx, %rsi
	movq	%rax, %rdi
	call	ISGetIndices
	movl	%eax, -88(%rbp)
	cmpl	$0, -88(%rbp)
	setne	%al
	movzbl	%al, %eax
	testq	%rax, %rax
	je	.L79
	movl	-88(%rbp), %eax
	movq	$.LC5, 8(%rsp)
	movl	$1, (%rsp)
	movl	%eax, %r9d
	movl	$.LC3, %r8d
	movl	$.LC6, %ecx
	movl	$__func__.24258, %edx
	movl	$36, %esi
	movl	$1140850689, %edi
	movl	$0, %eax
	call	PetscError
	jmp	.L64
.L79:
	.loc 4 37 0
	movl	-80(%rbp), %eax
	cltq
	salq	$3, %rax
	addq	-168(%rbp), %rax
	movq	(%rax), %rax
	leaq	-100(%rbp), %rdx
	movq	%rdx, %rsi
	movq	%rax, %rdi
	call	ISGetLocalSize
	movl	%eax, -88(%rbp)
	cmpl	$0, -88(%rbp)
	setne	%al
	movzbl	%al, %eax
	testq	%rax, %rax
	je	.L80
	movl	-88(%rbp), %eax
	movq	$.LC5, 8(%rsp)
	movl	$1, (%rsp)
	movl	%eax, %r9d
	movl	$.LC3, %r8d
	movl	$.LC6, %ecx
	movl	$__func__.24258, %edx
	movl	$37, %esi
	movl	$1140850689, %edi
	movl	$0, %eax
	call	PetscError
	jmp	.L64
.L80:
	.loc 4 40 0
	movl	$0, -76(%rbp)
	jmp	.L81
.L84:
	.loc 4 41 0
	movq	-120(%rbp), %rax
	movl	-76(%rbp), %edx
	movslq	%edx, %rdx
	salq	$2, %rdx
	addq	%rdx, %rax
	movl	(%rax), %eax
	movl	%eax, %edx
	sarl	$31, %edx
	idivl	-20(%rbp)
	movl	%eax, -52(%rbp)
	.loc 4 42 0
	movl	-52(%rbp), %eax
	cmpl	-64(%rbp), %eax
	jl	.L82
	movq	$.LC8, 8(%rsp)
	movl	$0, (%rsp)
	movl	$63, %r9d
	movl	$.LC3, %r8d
	movl	$.LC6, %ecx
	movl	$__func__.24258, %edx
	movl	$42, %esi
	movl	$1140850689, %edi
	movl	$0, %eax
	call	PetscError
	jmp	.L64
.L82:
	.loc 4 43 0
	movl	-52(%rbp), %eax
	leal	7(%rax), %edx
	testl	%eax, %eax
	cmovs	%edx, %eax
	sarl	$3, %eax
	movl	%eax, _BT_idx(%rip)
	movq	-136(%rbp), %rdx
	movl	_BT_idx(%rip), %eax
	cltq
	leaq	(%rdx,%rax), %rax
	movzbl	(%rax), %eax
	movb	%al, _BT_c(%rip)
	movl	-52(%rbp), %eax
	movl	%eax, %edx
	sarl	$31, %edx
	shrl	$29, %edx
	addl	%edx, %eax
	andl	$7, %eax
	subl	%edx, %eax
	movl	$1, %edx
	movl	%edx, %ebx
	movl	%eax, %ecx
	sall	%cl, %ebx
	movl	%ebx, %eax
	movb	%al, _BT_mask(%rip)
	movq	-136(%rbp), %rdx
	movl	_BT_idx(%rip), %eax
	cltq
	addq	%rax, %rdx
	movzbl	_BT_c(%rip), %ecx
	movzbl	_BT_mask(%rip), %eax
	orl	%ecx, %eax
	movb	%al, (%rdx)
	movzbl	_BT_c(%rip), %edx
	movzbl	_BT_mask(%rip), %eax
	andl	%edx, %eax
	testb	%al, %al
	jne	.L83
	movq	-112(%rbp), %rax
	movl	-60(%rbp), %edx
	movslq	%edx, %rdx
	salq	$2, %rdx
	leaq	(%rax,%rdx), %rdx
	movl	-52(%rbp), %eax
	movl	%eax, (%rdx)
	addl	$1, -60(%rbp)
.L83:
	.loc 4 40 0
	addl	$1, -76(%rbp)
.L81:
	movl	-100(%rbp), %eax
	cmpl	%eax, -76(%rbp)
	jl	.L84
	.loc 4 45 0
	movl	-80(%rbp), %eax
	cltq
	salq	$3, %rax
	addq	-168(%rbp), %rax
	movq	(%rax), %rax
	leaq	-120(%rbp), %rdx
	movq	%rdx, %rsi
	movq	%rax, %rdi
	call	ISRestoreIndices
	movl	%eax, -88(%rbp)
	cmpl	$0, -88(%rbp)
	setne	%al
	movzbl	%al, %eax
	testq	%rax, %rax
	je	.L85
	movl	-88(%rbp), %eax
	movq	$.LC5, 8(%rsp)
	movl	$1, (%rsp)
	movl	%eax, %r9d
	movl	$.LC3, %r8d
	movl	$.LC6, %ecx
	movl	$__func__.24258, %edx
	movl	$45, %esi
	movl	$1140850689, %edi
	movl	$0, %eax
	call	PetscError
	jmp	.L64
.L85:
	.loc 4 46 0
	movl	-80(%rbp), %eax
	cltq
	salq	$3, %rax
	addq	-168(%rbp), %rax
	movq	%rax, %rdi
	call	ISDestroy
	movl	%eax, -88(%rbp)
	cmpl	$0, -88(%rbp)
	setne	%al
	movzbl	%al, %eax
	testq	%rax, %rax
	je	.L86
	movl	-88(%rbp), %eax
	movq	$.LC5, 8(%rsp)
	movl	$1, (%rsp)
	movl	%eax, %r9d
	movl	$.LC3, %r8d
	movl	$.LC6, %ecx
	movl	$__func__.24258, %edx
	movl	$46, %esi
	movl	$1140850689, %edi
	movl	$0, %eax
	call	PetscError
	jmp	.L64
.L86:
	.loc 4 48 0
	movl	$0, -72(%rbp)
	.loc 4 49 0
	movl	$0, -76(%rbp)
	jmp	.L87
.L93:
	.loc 4 50 0
	movl	-60(%rbp), %eax
	movl	%eax, -100(%rbp)
	.loc 4 51 0
	jmp	.L88
.L92:
	.loc 4 52 0
	movq	-112(%rbp), %rax
	movl	-72(%rbp), %edx
	movslq	%edx, %rdx
	salq	$2, %rdx
	addq	%rdx, %rax
	movl	(%rax), %eax
	movl	%eax, -84(%rbp)
	.loc 4 53 0
	movl	-84(%rbp), %eax
	cltq
	salq	$2, %rax
	addq	-40(%rbp), %rax
	movl	(%rax), %eax
	movl	%eax, -48(%rbp)
	.loc 4 54 0
	movl	-84(%rbp), %eax
	cltq
	addq	$1, %rax
	salq	$2, %rax
	addq	-40(%rbp), %rax
	movl	(%rax), %eax
	movl	%eax, -44(%rbp)
	.loc 4 55 0
	movl	-48(%rbp), %eax
	movl	%eax, -68(%rbp)
	jmp	.L89
.L91:
	.loc 4 56 0
	movl	-68(%rbp), %eax
	cltq
	salq	$2, %rax
	addq	-32(%rbp), %rax
	movl	(%rax), %eax
	movl	%eax, -56(%rbp)
	.loc 4 57 0
	movl	-56(%rbp), %eax
	leal	7(%rax), %edx
	testl	%eax, %eax
	cmovs	%edx, %eax
	sarl	$3, %eax
	movl	%eax, _BT_idx(%rip)
	movq	-136(%rbp), %rdx
	movl	_BT_idx(%rip), %eax
	cltq
	leaq	(%rdx,%rax), %rax
	movzbl	(%rax), %eax
	movb	%al, _BT_c(%rip)
	movl	-56(%rbp), %eax
	movl	%eax, %edx
	sarl	$31, %edx
	shrl	$29, %edx
	addl	%edx, %eax
	andl	$7, %eax
	subl	%edx, %eax
	movl	$1, %edx
	movl	%edx, %ebx
	movl	%eax, %ecx
	sall	%cl, %ebx
	movl	%ebx, %eax
	movb	%al, _BT_mask(%rip)
	movq	-136(%rbp), %rdx
	movl	_BT_idx(%rip), %eax
	cltq
	addq	%rax, %rdx
	movzbl	_BT_c(%rip), %ecx
	movzbl	_BT_mask(%rip), %eax
	orl	%ecx, %eax
	movb	%al, (%rdx)
	movzbl	_BT_c(%rip), %edx
	movzbl	_BT_mask(%rip), %eax
	andl	%edx, %eax
	testb	%al, %al
	jne	.L90
	movq	-112(%rbp), %rax
	movl	-60(%rbp), %edx
	movslq	%edx, %rdx
	salq	$2, %rdx
	leaq	(%rax,%rdx), %rdx
	movl	-56(%rbp), %eax
	movl	%eax, (%rdx)
	addl	$1, -60(%rbp)
.L90:
	.loc 4 55 0
	addl	$1, -68(%rbp)
.L89:
	movl	-68(%rbp), %eax
	cmpl	-44(%rbp), %eax
	jl	.L91
	.loc 4 51 0
	addl	$1, -72(%rbp)
.L88:
	movl	-100(%rbp), %eax
	cmpl	%eax, -72(%rbp)
	jl	.L92
	.loc 4 49 0
	addl	$1, -76(%rbp)
.L87:
	movl	-76(%rbp), %eax
	cmpl	-172(%rbp), %eax
	jl	.L93
	.loc 4 62 0
	movl	$0, -76(%rbp)
	jmp	.L94
.L97:
	.loc 4 63 0
	movl	$0, -72(%rbp)
	jmp	.L95
.L96:
	.loc 4 64 0
	movq	-128(%rbp), %rdx
	movl	-76(%rbp), %eax
	imull	-20(%rbp), %eax
	addl	-72(%rbp), %eax
	cltq
	salq	$2, %rax
	addq	%rax, %rdx
	movq	-112(%rbp), %rax
	movl	-76(%rbp), %ecx
	movslq	%ecx, %rcx
	salq	$2, %rcx
	addq	%rcx, %rax
	movl	(%rax), %eax
	imull	-20(%rbp), %eax
	addl	-72(%rbp), %eax
	movl	%eax, (%rdx)
	.loc 4 63 0
	addl	$1, -72(%rbp)
.L95:
	movl	-72(%rbp), %eax
	cmpl	-20(%rbp), %eax
	jl	.L96
	.loc 4 62 0
	addl	$1, -76(%rbp)
.L94:
	movl	-76(%rbp), %eax
	cmpl	-60(%rbp), %eax
	jl	.L97
	.loc 4 66 0
	movl	-80(%rbp), %eax
	cltq
	salq	$3, %rax
	movq	%rax, %rcx
	addq	-168(%rbp), %rcx
	movq	-128(%rbp), %rdx
	movl	-60(%rbp), %eax
	imull	-20(%rbp), %eax
	movq	%rcx, %r8
	movl	$0, %ecx
	movl	%eax, %esi
	movl	$1140850689, %edi
	call	ISCreateGeneral
	movl	%eax, -88(%rbp)
	cmpl	$0, -88(%rbp)
	setne	%al
	movzbl	%al, %eax
	testq	%rax, %rax
	je	.L98
	movl	-88(%rbp), %eax
	movq	$.LC5, 8(%rsp)
	movl	$1, (%rsp)
	movl	%eax, %r9d
	movl	$.LC3, %r8d
	movl	$.LC6, %ecx
	movl	$__func__.24258, %edx
	movl	$66, %esi
	movl	$1140850689, %edi
	movl	$0, %eax
	call	PetscError
	jmp	.L64
.L98:
	.loc 4 30 0
	addl	$1, -80(%rbp)
.L77:
	movl	-80(%rbp), %eax
	cmpl	-156(%rbp), %eax
	jl	.L99
	.loc 4 68 0
	movq	-136(%rbp), %rax
	testq	%rax, %rax
	je	.L100
	movq	PetscTrFree(%rip), %rbx
	movq	-136(%rbp), %rax
	movl	$.LC3, %r8d
	movl	$.LC6, %ecx
	movl	$__func__.24258, %edx
	movl	$68, %esi
	movq	%rax, %rdi
	call	*%rbx
	testl	%eax, %eax
	jne	.L101
	movq	$0, -136(%rbp)
	jmp	.L100
.L101:
	movl	$1, %eax
	jmp	.L102
.L100:
	movl	$0, %eax
.L102:
	movl	%eax, -88(%rbp)
	cmpl	$0, -88(%rbp)
	setne	%al
	movzbl	%al, %eax
	testq	%rax, %rax
	je	.L103
	movl	-88(%rbp), %eax
	movq	$.LC5, 8(%rsp)
	movl	$1, (%rsp)
	movl	%eax, %r9d
	movl	$.LC3, %r8d
	movl	$.LC6, %ecx
	movl	$__func__.24258, %edx
	movl	$68, %esi
	movl	$1140850689, %edi
	movl	$0, %eax
	call	PetscError
	jmp	.L64
.L103:
	.loc 4 69 0
	movq	-112(%rbp), %rax
	testq	%rax, %rax
	je	.L104
	movq	PetscTrFree(%rip), %rbx
	movq	-112(%rbp), %rax
	movl	$.LC3, %r8d
	movl	$.LC6, %ecx
	movl	$__func__.24258, %edx
	movl	$69, %esi
	movq	%rax, %rdi
	call	*%rbx
	testl	%eax, %eax
	jne	.L105
	movq	$0, -112(%rbp)
	jmp	.L104
.L105:
	movl	$1, %eax
	jmp	.L106
.L104:
	movl	$0, %eax
.L106:
	movl	%eax, -88(%rbp)
	cmpl	$0, -88(%rbp)
	setne	%al
	movzbl	%al, %eax
	testq	%rax, %rax
	je	.L107
	movl	-88(%rbp), %eax
	movq	$.LC5, 8(%rsp)
	movl	$1, (%rsp)
	movl	%eax, %r9d
	movl	$.LC3, %r8d
	movl	$.LC6, %ecx
	movl	$__func__.24258, %edx
	movl	$69, %esi
	movl	$1140850689, %edi
	movl	$0, %eax
	call	PetscError
	jmp	.L64
.L107:
	.loc 4 70 0
	movq	-128(%rbp), %rax
	testq	%rax, %rax
	je	.L108
	movq	PetscTrFree(%rip), %rbx
	movq	-128(%rbp), %rax
	movl	$.LC3, %r8d
	movl	$.LC6, %ecx
	movl	$__func__.24258, %edx
	movl	$70, %esi
	movq	%rax, %rdi
	call	*%rbx
	testl	%eax, %eax
	jne	.L109
	movq	$0, -128(%rbp)
	jmp	.L108
.L109:
	movl	$1, %eax
	jmp	.L110
.L108:
	movl	$0, %eax
.L110:
	movl	%eax, -88(%rbp)
	cmpl	$0, -88(%rbp)
	setne	%al
	movzbl	%al, %eax
	testq	%rax, %rax
	je	.L111
	movl	-88(%rbp), %eax
	movq	$.LC5, 8(%rsp)
	movl	$1, (%rsp)
	movl	%eax, %r9d
	movl	$.LC3, %r8d
	movl	$.LC6, %ecx
	movl	$__func__.24258, %edx
	movl	$70, %esi
	movl	$1140850689, %edi
	movl	$0, %eax
	call	PetscError
	jmp	.L64
.L111:
	.loc 4 71 0
	movq	petscstack(%rip), %rax
	testq	%rax, %rax
	je	.L112
	movq	petscstack(%rip), %rax
	movl	1792(%rax), %eax
	testl	%eax, %eax
	jle	.L112
	movq	petscstack(%rip), %rax
	movl	1792(%rax), %edx
	subl	$1, %edx
	movl	%edx, 1792(%rax)
	movq	petscstack(%rip), %rax
	movq	petscstack(%rip), %rdx
	movl	1792(%rdx), %edx
	movslq	%edx, %rdx
	movq	$0, (%rax,%rdx,8)
	movq	petscstack(%rip), %rax
	movq	petscstack(%rip), %rdx
	movl	1792(%rdx), %edx
	movslq	%edx, %rdx
	addq	$64, %rdx
	movq	$0, (%rax,%rdx,8)
	movq	petscstack(%rip), %rax
	movq	petscstack(%rip), %rdx
	movl	1792(%rdx), %edx
	movslq	%edx, %rdx
	subq	$-128, %rdx
	movq	$0, (%rax,%rdx,8)
	movq	petscstack(%rip), %rax
	movq	petscstack(%rip), %rdx
	movl	1792(%rdx), %edx
	movslq	%edx, %rdx
	addq	$384, %rdx
	movl	$0, (%rax,%rdx,4)
.L112:
	movl	$0, %eax
.L64:
	.loc 4 72 0
	addq	$184, %rsp
	popq	%rbx
	leave
	.cfi_def_cfa 7, 8
	ret
	.cfi_endproc
.LFE62:
	.size	MatIncreaseOverlap_SeqBAIJ, .-MatIncreaseOverlap_SeqBAIJ
	.section	.rodata
.LC9:
	.string	"IS is not sorted"
.LC10:
	.string	"Submatrix wrong size"
	.align 8
.LC11:
	.string	"Cannot reuse matrix. wrong no of nonzeros"
	.text
.globl MatGetSubMatrix_SeqBAIJ_Private
	.type	MatGetSubMatrix_SeqBAIJ_Private, @function
MatGetSubMatrix_SeqBAIJ_Private:
.LFB63:
	.loc 4 77 0
	.cfi_startproc
	pushq	%rbp
	.cfi_def_cfa_offset 16
	.cfi_offset 6, -16
	movq	%rsp, %rbp
	.cfi_def_cfa_register 6
	pushq	%rbx
	subq	$248, %rsp
	movq	%rdi, -200(%rbp)
	movq	%rsi, -208(%rbp)
	movq	%rdx, -216(%rbp)
	movl	%ecx, -220(%rbp)
	movq	%r8, -232(%rbp)
	.loc 4 78 0
	movq	-200(%rbp), %rax
	movq	472(%rax), %rax
	movq	%rax, -128(%rbp)
	.loc 4 80 0
	movq	-128(%rbp), %rax
	movl	232(%rax), %eax
	movl	%eax, -92(%rbp)
	.loc 4 83 0
	movq	-200(%rbp), %rax
	movq	456(%rax), %rax
	movl	32(%rax), %eax
	movl	%eax, -48(%rbp)
	movq	-128(%rbp), %rax
	movl	224(%rax), %eax
	movl	%eax, -44(%rbp)
	.loc 4 84 0
	movq	-128(%rbp), %rax
	movq	144(%rax), %rax
	movq	%rax, -40(%rbp)
	movq	-128(%rbp), %rax
	movq	136(%rax), %rax
	movq	%rax, -32(%rbp)
	.loc 4 89 0
	movq	petscstack(%rip), %rax
	testq	%rax, %rax
	je	.L171
	.cfi_offset 3, -24
	movq	petscstack(%rip), %rax
	movl	1792(%rax), %eax
	cmpl	$63, %eax
	jg	.L172
	movq	petscstack(%rip), %rax
	movq	petscstack(%rip), %rdx
	movl	1792(%rdx), %edx
	movslq	%edx, %rdx
	movq	$__func__.24627, (%rax,%rdx,8)
	movq	petscstack(%rip), %rax
	movq	petscstack(%rip), %rdx
	movl	1792(%rdx), %edx
	movslq	%edx, %rdx
	addq	$64, %rdx
	movq	$.LC6, (%rax,%rdx,8)
	movq	petscstack(%rip), %rax
	movq	petscstack(%rip), %rdx
	movl	1792(%rdx), %edx
	movslq	%edx, %rdx
	subq	$-128, %rdx
	movq	$.LC3, (%rax,%rdx,8)
	movq	petscstack(%rip), %rax
	movq	petscstack(%rip), %rdx
	movl	1792(%rdx), %edx
	movslq	%edx, %rdx
	addq	$384, %rdx
	movl	$89, (%rax,%rdx,4)
	movq	petscstack(%rip), %rax
	movl	1792(%rax), %edx
	addl	$1, %edx
	movl	%edx, 1792(%rax)
	jmp	.L170
.L171:
	nop
	jmp	.L170
.L172:
	nop
.L170:
	.loc 4 90 0
	leaq	-184(%rbp), %rdx
	movq	-216(%rbp), %rax
	movq	%rdx, %rsi
	movq	%rax, %rdi
	call	ISSorted
	movl	%eax, -112(%rbp)
	cmpl	$0, -112(%rbp)
	setne	%al
	movzbl	%al, %eax
	testq	%rax, %rax
	je	.L119
	movl	-112(%rbp), %eax
	movq	$.LC5, 8(%rsp)
	movl	$1, (%rsp)
	movl	%eax, %r9d
	movl	$.LC3, %r8d
	movl	$.LC6, %ecx
	movl	$__func__.24627, %edx
	movl	$90, %esi
	movl	$1140850689, %edi
	movl	$0, %eax
	call	PetscError
	jmp	.L120
.L119:
	.loc 4 91 0
	movl	-184(%rbp), %eax
	testl	%eax, %eax
	jne	.L121
	movq	$.LC9, 8(%rsp)
	movl	$0, (%rsp)
	movl	$73, %r9d
	movl	$.LC3, %r8d
	movl	$.LC6, %ecx
	movl	$__func__.24627, %edx
	movl	$91, %esi
	movl	$1140850689, %edi
	movl	$0, %eax
	call	PetscError
	jmp	.L120
.L121:
	.loc 4 93 0
	leaq	-152(%rbp), %rdx
	movq	-208(%rbp), %rax
	movq	%rdx, %rsi
	movq	%rax, %rdi
	call	ISGetIndices
	movl	%eax, -112(%rbp)
	cmpl	$0, -112(%rbp)
	setne	%al
	movzbl	%al, %eax
	testq	%rax, %rax
	je	.L122
	movl	-112(%rbp), %eax
	movq	$.LC5, 8(%rsp)
	movl	$1, (%rsp)
	movl	%eax, %r9d
	movl	$.LC3, %r8d
	movl	$.LC6, %ecx
	movl	$__func__.24627, %edx
	movl	$93, %esi
	movl	$1140850689, %edi
	movl	$0, %eax
	call	PetscError
	jmp	.L120
.L122:
	.loc 4 94 0
	leaq	-160(%rbp), %rdx
	movq	-216(%rbp), %rax
	movq	%rdx, %rsi
	movq	%rax, %rdi
	call	ISGetIndices
	movl	%eax, -112(%rbp)
	cmpl	$0, -112(%rbp)
	setne	%al
	movzbl	%al, %eax
	testq	%rax, %rax
	je	.L123
	movl	-112(%rbp), %eax
	movq	$.LC5, 8(%rsp)
	movl	$1, (%rsp)
	movl	%eax, %r9d
	movl	$.LC3, %r8d
	movl	$.LC6, %ecx
	movl	$__func__.24627, %edx
	movl	$94, %esi
	movl	$1140850689, %edi
	movl	$0, %eax
	call	PetscError
	jmp	.L120
.L123:
	.loc 4 95 0
	leaq	-164(%rbp), %rdx
	movq	-208(%rbp), %rax
	movq	%rdx, %rsi
	movq	%rax, %rdi
	call	ISGetLocalSize
	movl	%eax, -112(%rbp)
	cmpl	$0, -112(%rbp)
	setne	%al
	movzbl	%al, %eax
	testq	%rax, %rax
	je	.L124
	movl	-112(%rbp), %eax
	movq	$.LC5, 8(%rsp)
	movl	$1, (%rsp)
	movl	%eax, %r9d
	movl	$.LC3, %r8d
	movl	$.LC6, %ecx
	movl	$__func__.24627, %edx
	movl	$95, %esi
	movl	$1140850689, %edi
	movl	$0, %eax
	call	PetscError
	jmp	.L120
.L124:
	.loc 4 96 0
	leaq	-168(%rbp), %rdx
	movq	-216(%rbp), %rax
	movq	%rdx, %rsi
	movq	%rax, %rdi
	call	ISGetLocalSize
	movl	%eax, -112(%rbp)
	cmpl	$0, -112(%rbp)
	setne	%al
	movzbl	%al, %eax
	testq	%rax, %rax
	je	.L125
	movl	-112(%rbp), %eax
	movq	$.LC5, 8(%rsp)
	movl	$1, (%rsp)
	movl	%eax, %r9d
	movl	$.LC3, %r8d
	movl	$.LC6, %ecx
	movl	$__func__.24627, %edx
	movl	$96, %esi
	movl	$1140850689, %edi
	movl	$0, %eax
	call	PetscError
	jmp	.L120
.L125:
	.loc 4 98 0
	movl	-92(%rbp), %eax
	addl	$1, %eax
	cltq
	salq	$2, %rax
	testq	%rax, %rax
	je	.L126
	movq	PetscTrMalloc(%rip), %rax
	leaq	-136(%rbp), %rdx
	movl	-92(%rbp), %ecx
	addl	$1, %ecx
	movslq	%ecx, %rcx
	leaq	0(,%rcx,4), %rbx
	movq	%rdx, %r9
	movl	$.LC3, %r8d
	movl	$.LC6, %ecx
	movl	$__func__.24627, %edx
	movl	$98, %esi
	movq	%rbx, %rdi
	call	*%rax
	jmp	.L127
.L126:
	movq	$0, -136(%rbp)
	movl	$0, %eax
.L127:
	movl	%eax, -112(%rbp)
	cmpl	$0, -112(%rbp)
	setne	%al
	movzbl	%al, %eax
	testq	%rax, %rax
	je	.L128
	movl	-112(%rbp), %eax
	movq	$.LC5, 8(%rsp)
	movl	$1, (%rsp)
	movl	%eax, %r9d
	movl	$.LC3, %r8d
	movl	$.LC6, %ecx
	movl	$__func__.24627, %edx
	movl	$98, %esi
	movl	$1140850689, %edi
	movl	$0, %eax
	call	PetscError
	jmp	.L120
.L128:
	.loc 4 99 0
	movq	-136(%rbp), %rax
	movq	%rax, -56(%rbp)
	.loc 4 100 0
	movl	-164(%rbp), %eax
	addl	$1, %eax
	cltq
	salq	$2, %rax
	testq	%rax, %rax
	je	.L129
	movq	PetscTrMalloc(%rip), %rax
	leaq	-144(%rbp), %rdx
	movl	-164(%rbp), %ecx
	addl	$1, %ecx
	movslq	%ecx, %rcx
	leaq	0(,%rcx,4), %rbx
	movq	%rdx, %r9
	movl	$.LC3, %r8d
	movl	$.LC6, %ecx
	movl	$__func__.24627, %edx
	movl	$100, %esi
	movq	%rbx, %rdi
	call	*%rax
	jmp	.L130
.L129:
	movq	$0, -144(%rbp)
	movl	$0, %eax
.L130:
	movl	%eax, -112(%rbp)
	cmpl	$0, -112(%rbp)
	setne	%al
	movzbl	%al, %eax
	testq	%rax, %rax
	je	.L131
	movl	-112(%rbp), %eax
	movq	$.LC5, 8(%rsp)
	movl	$1, (%rsp)
	movl	%eax, %r9d
	movl	$.LC3, %r8d
	movl	$.LC6, %ecx
	movl	$__func__.24627, %edx
	movl	$100, %esi
	movl	$1140850689, %edi
	movl	$0, %eax
	call	PetscError
	jmp	.L120
.L131:
	.loc 4 101 0
	movl	-92(%rbp), %eax
	cltq
	leaq	0(,%rax,4), %rdx
	movq	-136(%rbp), %rax
	movq	%rdx, %rsi
	movq	%rax, %rdi
	call	PetscMemzero
	movl	%eax, -112(%rbp)
	cmpl	$0, -112(%rbp)
	setne	%al
	movzbl	%al, %eax
	testq	%rax, %rax
	je	.L132
	movl	-112(%rbp), %eax
	movq	$.LC5, 8(%rsp)
	movl	$1, (%rsp)
	movl	%eax, %r9d
	movl	$.LC3, %r8d
	movl	$.LC6, %ecx
	movl	$__func__.24627, %edx
	movl	$101, %esi
	movl	$1140850689, %edi
	movl	$0, %eax
	call	PetscError
	jmp	.L120
.L132:
	.loc 4 102 0
	movl	$0, -108(%rbp)
	jmp	.L133
.L134:
	movq	-136(%rbp), %rax
	movq	-160(%rbp), %rdx
	movl	-108(%rbp), %ecx
	movslq	%ecx, %rcx
	salq	$2, %rcx
	addq	%rcx, %rdx
	movl	(%rdx), %edx
	movslq	%edx, %rdx
	salq	$2, %rdx
	addq	%rdx, %rax
	movl	-108(%rbp), %edx
	addl	$1, %edx
	movl	%edx, (%rax)
	addl	$1, -108(%rbp)
.L133:
	movl	-168(%rbp), %eax
	cmpl	%eax, -108(%rbp)
	jl	.L134
	.loc 4 104 0
	movl	$0, -108(%rbp)
	jmp	.L135
.L139:
	.loc 4 105 0
	movq	-152(%rbp), %rax
	movl	-108(%rbp), %edx
	movslq	%edx, %rdx
	salq	$2, %rdx
	addq	%rdx, %rax
	movl	(%rax), %eax
	cltq
	salq	$2, %rax
	addq	-32(%rbp), %rax
	movl	(%rax), %eax
	movl	%eax, -100(%rbp)
	.loc 4 106 0
	movq	-128(%rbp), %rax
	movq	32(%rax), %rax
	movq	-152(%rbp), %rdx
	movl	-108(%rbp), %ecx
	movslq	%ecx, %rcx
	salq	$2, %rcx
	addq	%rcx, %rdx
	movl	(%rdx), %edx
	movslq	%edx, %rdx
	salq	$2, %rdx
	addq	%rdx, %rax
	movl	(%rax), %eax
	addl	-100(%rbp), %eax
	movl	%eax, -96(%rbp)
	.loc 4 107 0
	movq	-144(%rbp), %rax
	movl	-108(%rbp), %edx
	movslq	%edx, %rdx
	salq	$2, %rdx
	addq	%rdx, %rax
	movl	$0, (%rax)
	.loc 4 108 0
	movl	-100(%rbp), %eax
	movl	%eax, -104(%rbp)
	jmp	.L136
.L138:
	.loc 4 109 0
	movl	-104(%rbp), %eax
	cltq
	salq	$2, %rax
	addq	-40(%rbp), %rax
	movl	(%rax), %eax
	cltq
	salq	$2, %rax
	addq	-56(%rbp), %rax
	movl	(%rax), %eax
	testl	%eax, %eax
	je	.L137
	.loc 4 110 0
	movq	-144(%rbp), %rax
	movl	-108(%rbp), %edx
	movslq	%edx, %rdx
	salq	$2, %rdx
	addq	%rdx, %rax
	movl	(%rax), %edx
	addl	$1, %edx
	movl	%edx, (%rax)
.L137:
	.loc 4 108 0
	addl	$1, -104(%rbp)
.L136:
	movl	-104(%rbp), %eax
	cmpl	-96(%rbp), %eax
	jl	.L138
	.loc 4 104 0
	addl	$1, -108(%rbp)
.L135:
	movl	-164(%rbp), %eax
	cmpl	%eax, -108(%rbp)
	jl	.L139
	.loc 4 115 0
	cmpl	$1, -220(%rbp)
	jne	.L140
	.loc 4 116 0
	movq	-232(%rbp), %rax
	movq	(%rax), %rax
	movq	472(%rax), %rax
	movq	%rax, -120(%rbp)
	.loc 4 118 0
	movq	-120(%rbp), %rax
	movl	228(%rax), %edx
	movl	-164(%rbp), %eax
	cmpl	%eax, %edx
	jne	.L141
	movq	-120(%rbp), %rax
	movl	232(%rax), %edx
	movl	-168(%rbp), %eax
	cmpl	%eax, %edx
	jne	.L141
	movq	-232(%rbp), %rax
	movq	(%rax), %rax
	movq	456(%rax), %rax
	movl	32(%rax), %eax
	cmpl	-48(%rbp), %eax
	je	.L142
.L141:
	movq	$.LC10, 8(%rsp)
	movl	$0, (%rsp)
	movl	$60, %r9d
	movl	$.LC3, %r8d
	movl	$.LC6, %ecx
	movl	$__func__.24627, %edx
	movl	$118, %esi
	movl	$1140850689, %edi
	movl	$0, %eax
	call	PetscError
	jmp	.L120
.L142:
	.loc 4 119 0
	movq	-120(%rbp), %rax
	movl	228(%rax), %eax
	cltq
	leaq	0(,%rax,4), %rsi
	movq	-144(%rbp), %rbx
	movq	-120(%rbp), %rax
	movq	32(%rax), %rax
	leaq	-180(%rbp), %rdx
	movq	%rdx, %rcx
	movq	%rsi, %rdx
	movq	%rbx, %rsi
	movq	%rax, %rdi
	call	PetscMemcmp
	movl	%eax, -112(%rbp)
	cmpl	$0, -112(%rbp)
	setne	%al
	movzbl	%al, %eax
	testq	%rax, %rax
	je	.L143
	movl	-112(%rbp), %eax
	movq	$.LC5, 8(%rsp)
	movl	$1, (%rsp)
	movl	%eax, %r9d
	movl	$.LC3, %r8d
	movl	$.LC6, %ecx
	movl	$__func__.24627, %edx
	movl	$119, %esi
	movl	$1140850689, %edi
	movl	$0, %eax
	call	PetscError
	jmp	.L120
.L143:
	.loc 4 120 0
	movl	-180(%rbp), %eax
	testl	%eax, %eax
	jne	.L144
	movq	$.LC11, 8(%rsp)
	movl	$0, (%rsp)
	movl	$60, %r9d
	movl	$.LC3, %r8d
	movl	$.LC6, %ecx
	movl	$__func__.24627, %edx
	movl	$120, %esi
	movl	$1140850689, %edi
	movl	$0, %eax
	call	PetscError
	jmp	.L120
.L144:
	.loc 4 121 0
	movq	-120(%rbp), %rax
	movl	228(%rax), %eax
	cltq
	leaq	0(,%rax,4), %rdx
	movq	-120(%rbp), %rax
	movq	32(%rax), %rax
	movq	%rdx, %rsi
	movq	%rax, %rdi
	call	PetscMemzero
	movl	%eax, -112(%rbp)
	cmpl	$0, -112(%rbp)
	setne	%al
	movzbl	%al, %eax
	testq	%rax, %rax
	je	.L145
	movl	-112(%rbp), %eax
	movq	$.LC5, 8(%rsp)
	movl	$1, (%rsp)
	movl	%eax, %r9d
	movl	$.LC3, %r8d
	movl	$.LC6, %ecx
	movl	$__func__.24627, %edx
	movl	$121, %esi
	movl	$1140850689, %edi
	movl	$0, %eax
	call	PetscError
	jmp	.L120
.L145:
	.loc 4 122 0
	movq	-232(%rbp), %rax
	movq	(%rax), %rax
	movq	%rax, -176(%rbp)
	jmp	.L146
.L140:
	.loc 4 124 0
	movq	-200(%rbp), %rax
	movl	16(%rax), %eax
	leaq	-176(%rbp), %rdx
	movq	%rdx, %rsi
	movl	%eax, %edi
	call	MatCreate
	movl	%eax, -112(%rbp)
	cmpl	$0, -112(%rbp)
	setne	%al
	movzbl	%al, %eax
	testq	%rax, %rax
	je	.L147
	movl	-112(%rbp), %eax
	movq	$.LC5, 8(%rsp)
	movl	$1, (%rsp)
	movl	%eax, %r9d
	movl	$.LC3, %r8d
	movl	$.LC6, %ecx
	movl	$__func__.24627, %edx
	movl	$124, %esi
	movl	$1140850689, %edi
	movl	$0, %eax
	call	PetscError
	jmp	.L120
.L147:
	.loc 4 125 0
	movl	-168(%rbp), %eax
	movl	%eax, %edx
	imull	-48(%rbp), %edx
	movl	-164(%rbp), %eax
	movl	%eax, %ebx
	imull	-48(%rbp), %ebx
	movq	-176(%rbp), %rax
	movl	$-1, %r8d
	movl	$-1, %ecx
	movl	%ebx, %esi
	movq	%rax, %rdi
	call	MatSetSizes
	movl	%eax, -112(%rbp)
	cmpl	$0, -112(%rbp)
	setne	%al
	movzbl	%al, %eax
	testq	%rax, %rax
	je	.L148
	movl	-112(%rbp), %eax
	movq	$.LC5, 8(%rsp)
	movl	$1, (%rsp)
	movl	%eax, %r9d
	movl	$.LC3, %r8d
	movl	$.LC6, %ecx
	movl	$__func__.24627, %edx
	movl	$125, %esi
	movl	$1140850689, %edi
	movl	$0, %eax
	call	PetscError
	jmp	.L120
.L148:
	.loc 4 126 0
	movq	-200(%rbp), %rax
	movq	104(%rax), %rdx
	movq	-176(%rbp), %rax
	movq	%rdx, %rsi
	movq	%rax, %rdi
	call	MatSetType
	movl	%eax, -112(%rbp)
	cmpl	$0, -112(%rbp)
	setne	%al
	movzbl	%al, %eax
	testq	%rax, %rax
	je	.L149
	movl	-112(%rbp), %eax
	movq	$.LC5, 8(%rsp)
	movl	$1, (%rsp)
	movl	%eax, %r9d
	movl	$.LC3, %r8d
	movl	$.LC6, %ecx
	movl	$__func__.24627, %edx
	movl	$126, %esi
	movl	$1140850689, %edi
	movl	$0, %eax
	call	PetscError
	jmp	.L120
.L149:
	.loc 4 127 0
	movq	-144(%rbp), %rdx
	movq	-176(%rbp), %rax
	movl	-48(%rbp), %ebx
	movq	%rdx, %rcx
	movl	$0, %edx
	movl	%ebx, %esi
	movq	%rax, %rdi
	call	MatSeqBAIJSetPreallocation_SeqBAIJ
	movl	%eax, -112(%rbp)
	cmpl	$0, -112(%rbp)
	setne	%al
	movzbl	%al, %eax
	testq	%rax, %rax
	je	.L146
	movl	-112(%rbp), %eax
	movq	$.LC5, 8(%rsp)
	movl	$1, (%rsp)
	movl	%eax, %r9d
	movl	$.LC3, %r8d
	movl	$.LC6, %ecx
	movl	$__func__.24627, %edx
	movl	$127, %esi
	movl	$1140850689, %edi
	movl	$0, %eax
	call	PetscError
	jmp	.L120
.L146:
	.loc 4 129 0
	movq	-176(%rbp), %rax
	movq	472(%rax), %rax
	movq	%rax, -120(%rbp)
	.loc 4 130 0
	movl	$0, -108(%rbp)
	jmp	.L150
.L155:
	.loc 4 131 0
	movq	-152(%rbp), %rax
	movl	-108(%rbp), %edx
	movslq	%edx, %rdx
	salq	$2, %rdx
	addq	%rdx, %rax
	movl	(%rax), %eax
	movl	%eax, -88(%rbp)
	.loc 4 132 0
	movl	-88(%rbp), %eax
	cltq
	salq	$2, %rax
	addq	-32(%rbp), %rax
	movl	(%rax), %eax
	movl	%eax, -100(%rbp)
	.loc 4 133 0
	movq	-128(%rbp), %rax
	movq	32(%rax), %rax
	movl	-88(%rbp), %edx
	movslq	%edx, %rdx
	salq	$2, %rdx
	addq	%rdx, %rax
	movl	(%rax), %eax
	addl	-100(%rbp), %eax
	movl	%eax, -96(%rbp)
	.loc 4 134 0
	movq	-120(%rbp), %rax
	movq	136(%rax), %rax
	movl	-108(%rbp), %edx
	movslq	%edx, %rdx
	salq	$2, %rdx
	addq	%rdx, %rax
	movl	(%rax), %eax
	movl	%eax, -84(%rbp)
	.loc 4 135 0
	movq	-120(%rbp), %rax
	movq	144(%rax), %rax
	movl	-84(%rbp), %edx
	movslq	%edx, %rdx
	salq	$2, %rdx
	addq	%rdx, %rax
	movq	%rax, -80(%rbp)
	.loc 4 136 0
	movq	-120(%rbp), %rax
	movq	168(%rax), %rdx
	movl	-84(%rbp), %eax
	imull	-44(%rbp), %eax
	cltq
	salq	$3, %rax
	leaq	(%rdx,%rax), %rax
	movq	%rax, -24(%rbp)
	.loc 4 137 0
	movq	-120(%rbp), %rax
	movq	32(%rax), %rax
	movl	-108(%rbp), %edx
	movslq	%edx, %rdx
	salq	$2, %rdx
	addq	%rdx, %rax
	movq	%rax, -64(%rbp)
	.loc 4 138 0
	movl	-100(%rbp), %eax
	movl	%eax, -104(%rbp)
	jmp	.L151
.L154:
	.loc 4 139 0
	movq	-128(%rbp), %rax
	movq	144(%rax), %rax
	movl	-104(%rbp), %edx
	movslq	%edx, %rdx
	salq	$2, %rdx
	addq	%rdx, %rax
	movl	(%rax), %eax
	cltq
	salq	$2, %rax
	addq	-56(%rbp), %rax
	movl	(%rax), %eax
	movl	%eax, -68(%rbp)
	cmpl	$0, -68(%rbp)
	je	.L152
	.loc 4 140 0
	movl	-68(%rbp), %eax
	leal	-1(%rax), %edx
	movq	-80(%rbp), %rax
	movl	%edx, (%rax)
	addq	$4, -80(%rbp)
	.loc 4 141 0
	movl	-44(%rbp), %eax
	cltq
	leaq	0(,%rax,8), %rdx
	movq	-128(%rbp), %rax
	movq	168(%rax), %rcx
	movl	-104(%rbp), %eax
	imull	-44(%rbp), %eax
	cltq
	salq	$3, %rax
	addq	%rax, %rcx
	movq	-24(%rbp), %rax
	movq	%rcx, %rsi
	movq	%rax, %rdi
	call	PetscMemcpy
	movl	%eax, -112(%rbp)
	cmpl	$0, -112(%rbp)
	setne	%al
	movzbl	%al, %eax
	testq	%rax, %rax
	je	.L153
	movl	-112(%rbp), %eax
	movq	$.LC5, 8(%rsp)
	movl	$1, (%rsp)
	movl	%eax, %r9d
	movl	$.LC3, %r8d
	movl	$.LC6, %ecx
	movl	$__func__.24627, %edx
	movl	$141, %esi
	movl	$1140850689, %edi
	movl	$0, %eax
	call	PetscError
	jmp	.L120
.L153:
	.loc 4 142 0
	movl	-44(%rbp), %eax
	cltq
	salq	$3, %rax
	addq	%rax, -24(%rbp)
	.loc 4 143 0
	movq	-64(%rbp), %rax
	movl	(%rax), %eax
	leal	1(%rax), %edx
	movq	-64(%rbp), %rax
	movl	%edx, (%rax)
.L152:
	.loc 4 138 0
	addl	$1, -104(%rbp)
.L151:
	movl	-104(%rbp), %eax
	cmpl	-96(%rbp), %eax
	jl	.L154
	.loc 4 130 0
	addl	$1, -108(%rbp)
.L150:
	movl	-164(%rbp), %eax
	cmpl	%eax, -108(%rbp)
	jl	.L155
	.loc 4 149 0
	leaq	-160(%rbp), %rdx
	movq	-216(%rbp), %rax
	movq	%rdx, %rsi
	movq	%rax, %rdi
	call	ISRestoreIndices
	movl	%eax, -112(%rbp)
	cmpl	$0, -112(%rbp)
	setne	%al
	movzbl	%al, %eax
	testq	%rax, %rax
	je	.L156
	movl	-112(%rbp), %eax
	movq	$.LC5, 8(%rsp)
	movl	$1, (%rsp)
	movl	%eax, %r9d
	movl	$.LC3, %r8d
	movl	$.LC6, %ecx
	movl	$__func__.24627, %edx
	movl	$149, %esi
	movl	$1140850689, %edi
	movl	$0, %eax
	call	PetscError
	jmp	.L120
.L156:
	.loc 4 150 0
	movq	-136(%rbp), %rax
	testq	%rax, %rax
	je	.L157
	movq	PetscTrFree(%rip), %rbx
	movq	-136(%rbp), %rax
	movl	$.LC3, %r8d
	movl	$.LC6, %ecx
	movl	$__func__.24627, %edx
	movl	$150, %esi
	movq	%rax, %rdi
	call	*%rbx
	testl	%eax, %eax
	jne	.L158
	movq	$0, -136(%rbp)
	jmp	.L157
.L158:
	movl	$1, %eax
	jmp	.L159
.L157:
	movl	$0, %eax
.L159:
	movl	%eax, -112(%rbp)
	cmpl	$0, -112(%rbp)
	setne	%al
	movzbl	%al, %eax
	testq	%rax, %rax
	je	.L160
	movl	-112(%rbp), %eax
	movq	$.LC5, 8(%rsp)
	movl	$1, (%rsp)
	movl	%eax, %r9d
	movl	$.LC3, %r8d
	movl	$.LC6, %ecx
	movl	$__func__.24627, %edx
	movl	$150, %esi
	movl	$1140850689, %edi
	movl	$0, %eax
	call	PetscError
	jmp	.L120
.L160:
	.loc 4 151 0
	movq	-144(%rbp), %rax
	testq	%rax, %rax
	je	.L161
	movq	PetscTrFree(%rip), %rbx
	movq	-144(%rbp), %rax
	movl	$.LC3, %r8d
	movl	$.LC6, %ecx
	movl	$__func__.24627, %edx
	movl	$151, %esi
	movq	%rax, %rdi
	call	*%rbx
	testl	%eax, %eax
	jne	.L162
	movq	$0, -144(%rbp)
	jmp	.L161
.L162:
	movl	$1, %eax
	jmp	.L163
.L161:
	movl	$0, %eax
.L163:
	movl	%eax, -112(%rbp)
	cmpl	$0, -112(%rbp)
	setne	%al
	movzbl	%al, %eax
	testq	%rax, %rax
	je	.L164
	movl	-112(%rbp), %eax
	movq	$.LC5, 8(%rsp)
	movl	$1, (%rsp)
	movl	%eax, %r9d
	movl	$.LC3, %r8d
	movl	$.LC6, %ecx
	movl	$__func__.24627, %edx
	movl	$151, %esi
	movl	$1140850689, %edi
	movl	$0, %eax
	call	PetscError
	jmp	.L120
.L164:
	.loc 4 152 0
	movq	-176(%rbp), %rax
	movl	$0, %esi
	movq	%rax, %rdi
	call	MatAssemblyBegin
	movl	%eax, -112(%rbp)
	cmpl	$0, -112(%rbp)
	setne	%al
	movzbl	%al, %eax
	testq	%rax, %rax
	je	.L165
	movl	-112(%rbp), %eax
	movq	$.LC5, 8(%rsp)
	movl	$1, (%rsp)
	movl	%eax, %r9d
	movl	$.LC3, %r8d
	movl	$.LC6, %ecx
	movl	$__func__.24627, %edx
	movl	$152, %esi
	movl	$1140850689, %edi
	movl	$0, %eax
	call	PetscError
	jmp	.L120
.L165:
	.loc 4 153 0
	movq	-176(%rbp), %rax
	movl	$0, %esi
	movq	%rax, %rdi
	call	MatAssemblyEnd
	movl	%eax, -112(%rbp)
	cmpl	$0, -112(%rbp)
	setne	%al
	movzbl	%al, %eax
	testq	%rax, %rax
	je	.L166
	movl	-112(%rbp), %eax
	movq	$.LC5, 8(%rsp)
	movl	$1, (%rsp)
	movl	%eax, %r9d
	movl	$.LC3, %r8d
	movl	$.LC6, %ecx
	movl	$__func__.24627, %edx
	movl	$153, %esi
	movl	$1140850689, %edi
	movl	$0, %eax
	call	PetscError
	jmp	.L120
.L166:
	.loc 4 155 0
	leaq	-152(%rbp), %rdx
	movq	-208(%rbp), %rax
	movq	%rdx, %rsi
	movq	%rax, %rdi
	call	ISRestoreIndices
	movl	%eax, -112(%rbp)
	cmpl	$0, -112(%rbp)
	setne	%al
	movzbl	%al, %eax
	testq	%rax, %rax
	je	.L167
	movl	-112(%rbp), %eax
	movq	$.LC5, 8(%rsp)
	movl	$1, (%rsp)
	movl	%eax, %r9d
	movl	$.LC3, %r8d
	movl	$.LC6, %ecx
	movl	$__func__.24627, %edx
	movl	$155, %esi
	movl	$1140850689, %edi
	movl	$0, %eax
	call	PetscError
	jmp	.L120
.L167:
	.loc 4 156 0
	movq	-176(%rbp), %rdx
	movq	-232(%rbp), %rax
	movq	%rdx, (%rax)
	.loc 4 157 0
	movq	petscstack(%rip), %rax
	testq	%rax, %rax
	je	.L168
	movq	petscstack(%rip), %rax
	movl	1792(%rax), %eax
	testl	%eax, %eax
	jle	.L168
	movq	petscstack(%rip), %rax
	movl	1792(%rax), %edx
	subl	$1, %edx
	movl	%edx, 1792(%rax)
	movq	petscstack(%rip), %rax
	movq	petscstack(%rip), %rdx
	movl	1792(%rdx), %edx
	movslq	%edx, %rdx
	movq	$0, (%rax,%rdx,8)
	movq	petscstack(%rip), %rax
	movq	petscstack(%rip), %rdx
	movl	1792(%rdx), %edx
	movslq	%edx, %rdx
	addq	$64, %rdx
	movq	$0, (%rax,%rdx,8)
	movq	petscstack(%rip), %rax
	movq	petscstack(%rip), %rdx
	movl	1792(%rdx), %edx
	movslq	%edx, %rdx
	subq	$-128, %rdx
	movq	$0, (%rax,%rdx,8)
	movq	petscstack(%rip), %rax
	movq	petscstack(%rip), %rdx
	movl	1792(%rdx), %edx
	movslq	%edx, %rdx
	addq	$384, %rdx
	movl	$0, (%rax,%rdx,4)
.L168:
	movl	$0, %eax
.L120:
	.loc 4 158 0
	addq	$248, %rsp
	popq	%rbx
	leave
	.cfi_def_cfa 7, 8
	ret
	.cfi_endproc
.LFE63:
	.size	MatGetSubMatrix_SeqBAIJ_Private, .-MatGetSubMatrix_SeqBAIJ_Private
	.section	.rodata
	.align 8
.LC12:
	.string	"Index set does not match blocks"
.LC13:
	.string	"Internal error in PETSc"
	.text
.globl MatGetSubMatrix_SeqBAIJ
	.type	MatGetSubMatrix_SeqBAIJ, @function
MatGetSubMatrix_SeqBAIJ:
.LFB64:
	.loc 4 163 0
	.cfi_startproc
	pushq	%rbp
	.cfi_def_cfa_offset 16
	.cfi_offset 6, -16
	movq	%rsp, %rbp
	.cfi_def_cfa_register 6
	pushq	%rbx
	subq	$152, %rsp
	movq	%rdi, -104(%rbp)
	movq	%rsi, -112(%rbp)
	movq	%rdx, -120(%rbp)
	movl	%ecx, -124(%rbp)
	movq	%r8, -136(%rbp)
	.loc 4 164 0
	movq	-104(%rbp), %rax
	movq	472(%rax), %rax
	movq	%rax, -40(%rbp)
	.loc 4 167 0
	movq	-104(%rbp), %rax
	movq	456(%rax), %rax
	movl	32(%rax), %eax
	movl	%eax, -24(%rbp)
	.loc 4 170 0
	movq	petscstack(%rip), %rax
	testq	%rax, %rax
	je	.L213
	.cfi_offset 3, -24
	movq	petscstack(%rip), %rax
	movl	1792(%rax), %eax
	cmpl	$63, %eax
	jg	.L214
	movq	petscstack(%rip), %rax
	movq	petscstack(%rip), %rdx
	movl	1792(%rdx), %edx
	movslq	%edx, %rdx
	movq	$__func__.25037, (%rax,%rdx,8)
	movq	petscstack(%rip), %rax
	movq	petscstack(%rip), %rdx
	movl	1792(%rdx), %edx
	movslq	%edx, %rdx
	addq	$64, %rdx
	movq	$.LC6, (%rax,%rdx,8)
	movq	petscstack(%rip), %rax
	movq	petscstack(%rip), %rdx
	movl	1792(%rdx), %edx
	movslq	%edx, %rdx
	subq	$-128, %rdx
	movq	$.LC3, (%rax,%rdx,8)
	movq	petscstack(%rip), %rax
	movq	petscstack(%rip), %rdx
	movl	1792(%rdx), %edx
	movslq	%edx, %rdx
	addq	$384, %rdx
	movl	$170, (%rax,%rdx,4)
	movq	petscstack(%rip), %rax
	movl	1792(%rax), %edx
	addl	$1, %edx
	movl	%edx, 1792(%rax)
	jmp	.L212
.L213:
	nop
	jmp	.L212
.L214:
	nop
.L212:
	.loc 4 171 0
	leaq	-88(%rbp), %rdx
	movq	-112(%rbp), %rax
	movq	%rdx, %rsi
	movq	%rax, %rdi
	call	ISGetIndices
	movl	%eax, -32(%rbp)
	cmpl	$0, -32(%rbp)
	setne	%al
	movzbl	%al, %eax
	testq	%rax, %rax
	je	.L175
	movl	-32(%rbp), %eax
	movq	$.LC5, 8(%rsp)
	movl	$1, (%rsp)
	movl	%eax, %r9d
	movl	$.LC3, %r8d
	movl	$.LC6, %ecx
	movl	$__func__.25037, %edx
	movl	$171, %esi
	movl	$1140850689, %edi
	movl	$0, %eax
	call	PetscError
	jmp	.L176
.L175:
	.loc 4 172 0
	leaq	-96(%rbp), %rdx
	movq	-120(%rbp), %rax
	movq	%rdx, %rsi
	movq	%rax, %rdi
	call	ISGetIndices
	movl	%eax, -32(%rbp)
	cmpl	$0, -32(%rbp)
	setne	%al
	movzbl	%al, %eax
	testq	%rax, %rax
	je	.L177
	movl	-32(%rbp), %eax
	movq	$.LC5, 8(%rsp)
	movl	$1, (%rsp)
	movl	%eax, %r9d
	movl	$.LC3, %r8d
	movl	$.LC6, %ecx
	movl	$__func__.25037, %edx
	movl	$172, %esi
	movl	$1140850689, %edi
	movl	$0, %eax
	call	PetscError
	jmp	.L176
.L177:
	.loc 4 173 0
	leaq	-76(%rbp), %rdx
	movq	-112(%rbp), %rax
	movq	%rdx, %rsi
	movq	%rax, %rdi
	call	ISGetLocalSize
	movl	%eax, -32(%rbp)
	cmpl	$0, -32(%rbp)
	setne	%al
	movzbl	%al, %eax
	testq	%rax, %rax
	je	.L178
	movl	-32(%rbp), %eax
	movq	$.LC5, 8(%rsp)
	movl	$1, (%rsp)
	movl	%eax, %r9d
	movl	$.LC3, %r8d
	movl	$.LC6, %ecx
	movl	$__func__.25037, %edx
	movl	$173, %esi
	movl	$1140850689, %edi
	movl	$0, %eax
	call	PetscError
	jmp	.L176
.L178:
	.loc 4 174 0
	leaq	-80(%rbp), %rdx
	movq	-120(%rbp), %rax
	movq	%rdx, %rsi
	movq	%rax, %rdi
	call	ISGetLocalSize
	movl	%eax, -32(%rbp)
	cmpl	$0, -32(%rbp)
	setne	%al
	movzbl	%al, %eax
	testq	%rax, %rax
	je	.L179
	movl	-32(%rbp), %eax
	movq	$.LC5, 8(%rsp)
	movl	$1, (%rsp)
	movl	%eax, %r9d
	movl	$.LC3, %r8d
	movl	$.LC6, %ecx
	movl	$__func__.25037, %edx
	movl	$174, %esi
	movl	$1140850689, %edi
	movl	$0, %eax
	call	PetscError
	jmp	.L176
.L179:
	.loc 4 178 0
	movq	$0, -72(%rbp)
	movq	-40(%rbp), %rax
	movl	228(%rax), %eax
	cltq
	salq	$3, %rax
	cmpq	$-15, %rax
	je	.L180
	movq	PetscTrMalloc(%rip), %rbx
	leaq	-64(%rbp), %rdx
	movq	-40(%rbp), %rax
	movl	228(%rax), %eax
	cltq
	salq	$3, %rax
	addq	$15, %rax
	movq	%rdx, %r9
	movl	$.LC3, %r8d
	movl	$.LC6, %ecx
	movl	$__func__.25037, %edx
	movl	$178, %esi
	movq	%rax, %rdi
	call	*%rbx
	testl	%eax, %eax
	setne	%al
	jmp	.L181
.L180:
	movq	$0, -64(%rbp)
	movl	$0, %eax
.L181:
	testb	%al, %al
	jne	.L182
	movq	-64(%rbp), %rdx
	movq	-40(%rbp), %rax
	movl	228(%rax), %eax
	cltq
	salq	$2, %rax
	leaq	(%rdx,%rax), %rax
	addq	$15, %rax
	andq	$-16, %rax
	movq	%rax, -72(%rbp)
	movl	$0, %eax
	jmp	.L183
.L182:
	movl	$1, %eax
.L183:
	movl	%eax, -32(%rbp)
	cmpl	$0, -32(%rbp)
	setne	%al
	movzbl	%al, %eax
	testq	%rax, %rax
	je	.L184
	movl	-32(%rbp), %eax
	movq	$.LC5, 8(%rsp)
	movl	$1, (%rsp)
	movl	%eax, %r9d
	movl	$.LC3, %r8d
	movl	$.LC6, %ecx
	movl	$__func__.25037, %edx
	movl	$178, %esi
	movl	$1140850689, %edi
	movl	$0, %eax
	call	PetscError
	jmp	.L176
.L184:
	.loc 4 179 0
	movq	-40(%rbp), %rax
	movl	228(%rax), %eax
	cltq
	leaq	0(,%rax,4), %rdx
	movq	-64(%rbp), %rax
	movq	%rdx, %rsi
	movq	%rax, %rdi
	call	PetscMemzero
	movl	%eax, -32(%rbp)
	cmpl	$0, -32(%rbp)
	setne	%al
	movzbl	%al, %eax
	testq	%rax, %rax
	je	.L185
	movl	-32(%rbp), %eax
	movq	$.LC5, 8(%rsp)
	movl	$1, (%rsp)
	movl	%eax, %r9d
	movl	$.LC3, %r8d
	movl	$.LC6, %ecx
	movl	$__func__.25037, %edx
	movl	$179, %esi
	movl	$1140850689, %edi
	movl	$0, %eax
	call	PetscError
	jmp	.L176
.L185:
	.loc 4 180 0
	movl	$0, -28(%rbp)
	jmp	.L186
.L187:
	movq	-64(%rbp), %rcx
	movq	-88(%rbp), %rax
	movl	-28(%rbp), %edx
	movslq	%edx, %rdx
	salq	$2, %rdx
	addq	%rdx, %rax
	movl	(%rax), %eax
	movl	%eax, %edx
	sarl	$31, %edx
	idivl	-24(%rbp)
	cltq
	salq	$2, %rax
	leaq	(%rcx,%rax), %rax
	movl	(%rax), %edx
	addl	$1, %edx
	movl	%edx, (%rax)
	addl	$1, -28(%rbp)
.L186:
	movl	-76(%rbp), %eax
	cmpl	%eax, -28(%rbp)
	jl	.L187
	.loc 4 181 0
	movl	$0, -20(%rbp)
	.loc 4 182 0
	movl	$0, -28(%rbp)
	jmp	.L188
.L191:
	.loc 4 183 0
	movq	-64(%rbp), %rax
	movl	-28(%rbp), %edx
	movslq	%edx, %rdx
	salq	$2, %rdx
	addq	%rdx, %rax
	movl	(%rax), %eax
	testl	%eax, %eax
	je	.L189
	movq	-64(%rbp), %rax
	movl	-28(%rbp), %edx
	movslq	%edx, %rdx
	salq	$2, %rdx
	addq	%rdx, %rax
	movl	(%rax), %eax
	cmpl	-24(%rbp), %eax
	je	.L189
	movq	$.LC12, 8(%rsp)
	movl	$0, (%rsp)
	movl	$60, %r9d
	movl	$.LC3, %r8d
	movl	$.LC6, %ecx
	movl	$__func__.25037, %edx
	movl	$183, %esi
	movl	$1140850689, %edi
	movl	$0, %eax
	call	PetscError
	jmp	.L176
.L189:
	.loc 4 184 0
	movq	-64(%rbp), %rax
	movl	-28(%rbp), %edx
	movslq	%edx, %rdx
	salq	$2, %rdx
	addq	%rdx, %rax
	movl	(%rax), %eax
	cmpl	-24(%rbp), %eax
	jne	.L190
	movq	-72(%rbp), %rax
	movl	-20(%rbp), %edx
	movslq	%edx, %rdx
	salq	$2, %rdx
	leaq	(%rax,%rdx), %rdx
	movl	-28(%rbp), %eax
	movl	%eax, (%rdx)
	addl	$1, -20(%rbp)
.L190:
	.loc 4 182 0
	addl	$1, -28(%rbp)
.L188:
	movq	-40(%rbp), %rax
	movl	228(%rax), %eax
	cmpl	-28(%rbp), %eax
	jg	.L191
	.loc 4 186 0
	movq	-72(%rbp), %rdx
	leaq	-48(%rbp), %rcx
	movl	-20(%rbp), %eax
	movq	%rcx, %r8
	movl	$0, %ecx
	movl	%eax, %esi
	movl	$1140850689, %edi
	call	ISCreateGeneral
	movl	%eax, -32(%rbp)
	cmpl	$0, -32(%rbp)
	setne	%al
	movzbl	%al, %eax
	testq	%rax, %rax
	je	.L192
	movl	-32(%rbp), %eax
	movq	$.LC5, 8(%rsp)
	movl	$1, (%rsp)
	movl	%eax, %r9d
	movl	$.LC3, %r8d
	movl	$.LC6, %ecx
	movl	$__func__.25037, %edx
	movl	$186, %esi
	movl	$1140850689, %edi
	movl	$0, %eax
	call	PetscError
	jmp	.L176
.L192:
	.loc 4 188 0
	movq	-40(%rbp), %rax
	movl	228(%rax), %eax
	cltq
	leaq	0(,%rax,4), %rdx
	movq	-64(%rbp), %rax
	movq	%rdx, %rsi
	movq	%rax, %rdi
	call	PetscMemzero
	movl	%eax, -32(%rbp)
	cmpl	$0, -32(%rbp)
	setne	%al
	movzbl	%al, %eax
	testq	%rax, %rax
	je	.L193
	movl	-32(%rbp), %eax
	movq	$.LC5, 8(%rsp)
	movl	$1, (%rsp)
	movl	%eax, %r9d
	movl	$.LC3, %r8d
	movl	$.LC6, %ecx
	movl	$__func__.25037, %edx
	movl	$188, %esi
	movl	$1140850689, %edi
	movl	$0, %eax
	call	PetscError
	jmp	.L176
.L193:
	.loc 4 189 0
	movl	$0, -28(%rbp)
	jmp	.L194
.L195:
	movq	-64(%rbp), %rcx
	movq	-96(%rbp), %rax
	movl	-28(%rbp), %edx
	movslq	%edx, %rdx
	salq	$2, %rdx
	addq	%rdx, %rax
	movl	(%rax), %eax
	movl	%eax, %edx
	sarl	$31, %edx
	idivl	-24(%rbp)
	cltq
	salq	$2, %rax
	leaq	(%rcx,%rax), %rax
	movl	(%rax), %edx
	addl	$1, %edx
	movl	%edx, (%rax)
	addl	$1, -28(%rbp)
.L194:
	movl	-80(%rbp), %eax
	cmpl	%eax, -28(%rbp)
	jl	.L195
	.loc 4 190 0
	movl	$0, -20(%rbp)
	.loc 4 191 0
	movl	$0, -28(%rbp)
	jmp	.L196
.L199:
	.loc 4 192 0
	movq	-64(%rbp), %rax
	movl	-28(%rbp), %edx
	movslq	%edx, %rdx
	salq	$2, %rdx
	addq	%rdx, %rax
	movl	(%rax), %eax
	testl	%eax, %eax
	je	.L197
	movq	-64(%rbp), %rax
	movl	-28(%rbp), %edx
	movslq	%edx, %rdx
	salq	$2, %rdx
	addq	%rdx, %rax
	movl	(%rax), %eax
	cmpl	-24(%rbp), %eax
	je	.L197
	movq	$.LC13, 8(%rsp)
	movl	$0, (%rsp)
	movl	$77, %r9d
	movl	$.LC3, %r8d
	movl	$.LC6, %ecx
	movl	$__func__.25037, %edx
	movl	$192, %esi
	movl	$1140850689, %edi
	movl	$0, %eax
	call	PetscError
	jmp	.L176
.L197:
	.loc 4 193 0
	movq	-64(%rbp), %rax
	movl	-28(%rbp), %edx
	movslq	%edx, %rdx
	salq	$2, %rdx
	addq	%rdx, %rax
	movl	(%rax), %eax
	cmpl	-24(%rbp), %eax
	jne	.L198
	movq	-72(%rbp), %rax
	movl	-20(%rbp), %edx
	movslq	%edx, %rdx
	salq	$2, %rdx
	leaq	(%rax,%rdx), %rdx
	movl	-28(%rbp), %eax
	movl	%eax, (%rdx)
	addl	$1, -20(%rbp)
.L198:
	.loc 4 191 0
	addl	$1, -28(%rbp)
.L196:
	movq	-40(%rbp), %rax
	movl	228(%rax), %eax
	cmpl	-28(%rbp), %eax
	jg	.L199
	.loc 4 195 0
	movq	-72(%rbp), %rdx
	leaq	-56(%rbp), %rcx
	movl	-20(%rbp), %eax
	movq	%rcx, %r8
	movl	$0, %ecx
	movl	%eax, %esi
	movl	$1140850689, %edi
	call	ISCreateGeneral
	movl	%eax, -32(%rbp)
	cmpl	$0, -32(%rbp)
	setne	%al
	movzbl	%al, %eax
	testq	%rax, %rax
	je	.L200
	movl	-32(%rbp), %eax
	movq	$.LC5, 8(%rsp)
	movl	$1, (%rsp)
	movl	%eax, %r9d
	movl	$.LC3, %r8d
	movl	$.LC6, %ecx
	movl	$__func__.25037, %edx
	movl	$195, %esi
	movl	$1140850689, %edi
	movl	$0, %eax
	call	PetscError
	jmp	.L176
.L200:
	.loc 4 196 0
	leaq	-88(%rbp), %rdx
	movq	-112(%rbp), %rax
	movq	%rdx, %rsi
	movq	%rax, %rdi
	call	ISRestoreIndices
	movl	%eax, -32(%rbp)
	cmpl	$0, -32(%rbp)
	setne	%al
	movzbl	%al, %eax
	testq	%rax, %rax
	je	.L201
	movl	-32(%rbp), %eax
	movq	$.LC5, 8(%rsp)
	movl	$1, (%rsp)
	movl	%eax, %r9d
	movl	$.LC3, %r8d
	movl	$.LC6, %ecx
	movl	$__func__.25037, %edx
	movl	$196, %esi
	movl	$1140850689, %edi
	movl	$0, %eax
	call	PetscError
	jmp	.L176
.L201:
	.loc 4 197 0
	leaq	-96(%rbp), %rdx
	movq	-120(%rbp), %rax
	movq	%rdx, %rsi
	movq	%rax, %rdi
	call	ISRestoreIndices
	movl	%eax, -32(%rbp)
	cmpl	$0, -32(%rbp)
	setne	%al
	movzbl	%al, %eax
	testq	%rax, %rax
	je	.L202
	movl	-32(%rbp), %eax
	movq	$.LC5, 8(%rsp)
	movl	$1, (%rsp)
	movl	%eax, %r9d
	movl	$.LC3, %r8d
	movl	$.LC6, %ecx
	movl	$__func__.25037, %edx
	movl	$197, %esi
	movl	$1140850689, %edi
	movl	$0, %eax
	call	PetscError
	jmp	.L176
.L202:
	.loc 4 198 0
	movq	$0, -72(%rbp)
	movq	-64(%rbp), %rax
	testq	%rax, %rax
	je	.L203
	movq	PetscTrFree(%rip), %rbx
	movq	-64(%rbp), %rax
	movl	$.LC3, %r8d
	movl	$.LC6, %ecx
	movl	$__func__.25037, %edx
	movl	$198, %esi
	movq	%rax, %rdi
	call	*%rbx
	testl	%eax, %eax
	jne	.L204
	movq	$0, -64(%rbp)
	jmp	.L203
.L204:
	movl	$1, %eax
	jmp	.L205
.L203:
	movl	$0, %eax
.L205:
	movl	%eax, -32(%rbp)
	cmpl	$0, -32(%rbp)
	setne	%al
	movzbl	%al, %eax
	testq	%rax, %rax
	je	.L206
	movl	-32(%rbp), %eax
	movq	$.LC5, 8(%rsp)
	movl	$1, (%rsp)
	movl	%eax, %r9d
	movl	$.LC3, %r8d
	movl	$.LC6, %ecx
	movl	$__func__.25037, %edx
	movl	$198, %esi
	movl	$1140850689, %edi
	movl	$0, %eax
	call	PetscError
	jmp	.L176
.L206:
	.loc 4 200 0
	movq	-56(%rbp), %rdx
	movq	-48(%rbp), %rbx
	movq	-136(%rbp), %rsi
	movl	-124(%rbp), %ecx
	movq	-104(%rbp), %rax
	movq	%rsi, %r8
	movq	%rbx, %rsi
	movq	%rax, %rdi
	call	MatGetSubMatrix_SeqBAIJ_Private
	movl	%eax, -32(%rbp)
	cmpl	$0, -32(%rbp)
	setne	%al
	movzbl	%al, %eax
	testq	%rax, %rax
	je	.L207
	movl	-32(%rbp), %eax
	movq	$.LC5, 8(%rsp)
	movl	$1, (%rsp)
	movl	%eax, %r9d
	movl	$.LC3, %r8d
	movl	$.LC6, %ecx
	movl	$__func__.25037, %edx
	movl	$200, %esi
	movl	$1140850689, %edi
	movl	$0, %eax
	call	PetscError
	jmp	.L176
.L207:
	.loc 4 201 0
	leaq	-48(%rbp), %rax
	movq	%rax, %rdi
	call	ISDestroy
	movl	%eax, -32(%rbp)
	cmpl	$0, -32(%rbp)
	setne	%al
	movzbl	%al, %eax
	testq	%rax, %rax
	je	.L208
	movl	-32(%rbp), %eax
	movq	$.LC5, 8(%rsp)
	movl	$1, (%rsp)
	movl	%eax, %r9d
	movl	$.LC3, %r8d
	movl	$.LC6, %ecx
	movl	$__func__.25037, %edx
	movl	$201, %esi
	movl	$1140850689, %edi
	movl	$0, %eax
	call	PetscError
	jmp	.L176
.L208:
	.loc 4 202 0
	leaq	-56(%rbp), %rax
	movq	%rax, %rdi
	call	ISDestroy
	movl	%eax, -32(%rbp)
	cmpl	$0, -32(%rbp)
	setne	%al
	movzbl	%al, %eax
	testq	%rax, %rax
	je	.L209
	movl	-32(%rbp), %eax
	movq	$.LC5, 8(%rsp)
	movl	$1, (%rsp)
	movl	%eax, %r9d
	movl	$.LC3, %r8d
	movl	$.LC6, %ecx
	movl	$__func__.25037, %edx
	movl	$202, %esi
	movl	$1140850689, %edi
	movl	$0, %eax
	call	PetscError
	jmp	.L176
.L209:
	.loc 4 203 0
	movq	petscstack(%rip), %rax
	testq	%rax, %rax
	je	.L210
	movq	petscstack(%rip), %rax
	movl	1792(%rax), %eax
	testl	%eax, %eax
	jle	.L210
	movq	petscstack(%rip), %rax
	movl	1792(%rax), %edx
	subl	$1, %edx
	movl	%edx, 1792(%rax)
	movq	petscstack(%rip), %rax
	movq	petscstack(%rip), %rdx
	movl	1792(%rdx), %edx
	movslq	%edx, %rdx
	movq	$0, (%rax,%rdx,8)
	movq	petscstack(%rip), %rax
	movq	petscstack(%rip), %rdx
	movl	1792(%rdx), %edx
	movslq	%edx, %rdx
	addq	$64, %rdx
	movq	$0, (%rax,%rdx,8)
	movq	petscstack(%rip), %rax
	movq	petscstack(%rip), %rdx
	movl	1792(%rdx), %edx
	movslq	%edx, %rdx
	subq	$-128, %rdx
	movq	$0, (%rax,%rdx,8)
	movq	petscstack(%rip), %rax
	movq	petscstack(%rip), %rdx
	movl	1792(%rdx), %edx
	movslq	%edx, %rdx
	addq	$384, %rdx
	movl	$0, (%rax,%rdx,4)
.L210:
	movl	$0, %eax
.L176:
	.loc 4 204 0
	addq	$152, %rsp
	popq	%rbx
	leave
	.cfi_def_cfa 7, 8
	ret
	.cfi_endproc
.LFE64:
	.size	MatGetSubMatrix_SeqBAIJ, .-MatGetSubMatrix_SeqBAIJ
.globl MatGetSubMatrices_SeqBAIJ
	.type	MatGetSubMatrices_SeqBAIJ, @function
MatGetSubMatrices_SeqBAIJ:
.LFB65:
	.loc 4 209 0
	.cfi_startproc
	pushq	%rbp
	.cfi_def_cfa_offset 16
	.cfi_offset 6, -16
	movq	%rsp, %rbp
	.cfi_def_cfa_register 6
	pushq	%rbx
	subq	$88, %rsp
	movq	%rdi, -40(%rbp)
	movl	%esi, -44(%rbp)
	movq	%rdx, -56(%rbp)
	movq	%rcx, -64(%rbp)
	movl	%r8d, -68(%rbp)
	movq	%r9, -80(%rbp)
	.loc 4 213 0
	movq	petscstack(%rip), %rax
	testq	%rax, %rax
	je	.L227
	.cfi_offset 3, -24
	movq	petscstack(%rip), %rax
	movl	1792(%rax), %eax
	cmpl	$63, %eax
	jg	.L228
	movq	petscstack(%rip), %rax
	movq	petscstack(%rip), %rdx
	movl	1792(%rdx), %edx
	movslq	%edx, %rdx
	movq	$__func__.25328, (%rax,%rdx,8)
	movq	petscstack(%rip), %rax
	movq	petscstack(%rip), %rdx
	movl	1792(%rdx), %edx
	movslq	%edx, %rdx
	addq	$64, %rdx
	movq	$.LC6, (%rax,%rdx,8)
	movq	petscstack(%rip), %rax
	movq	petscstack(%rip), %rdx
	movl	1792(%rdx), %edx
	movslq	%edx, %rdx
	subq	$-128, %rdx
	movq	$.LC3, (%rax,%rdx,8)
	movq	petscstack(%rip), %rax
	movq	petscstack(%rip), %rdx
	movl	1792(%rdx), %edx
	movslq	%edx, %rdx
	addq	$384, %rdx
	movl	$213, (%rax,%rdx,4)
	movq	petscstack(%rip), %rax
	movl	1792(%rax), %edx
	addl	$1, %edx
	movl	%edx, 1792(%rax)
	jmp	.L226
.L227:
	nop
	jmp	.L226
.L228:
	nop
.L226:
	.loc 4 214 0
	cmpl	$0, -68(%rbp)
	jne	.L217
	.loc 4 215 0
	movl	-44(%rbp), %eax
	addl	$1, %eax
	cltq
	salq	$3, %rax
	testq	%rax, %rax
	je	.L218
	movq	PetscTrMalloc(%rip), %rax
	movq	-80(%rbp), %rdx
	movl	-44(%rbp), %ecx
	addl	$1, %ecx
	movslq	%ecx, %rcx
	leaq	0(,%rcx,8), %rbx
	movq	%rdx, %r9
	movl	$.LC3, %r8d
	movl	$.LC6, %ecx
	movl	$__func__.25328, %edx
	movl	$215, %esi
	movq	%rbx, %rdi
	call	*%rax
	jmp	.L219
.L218:
	movq	-80(%rbp), %rax
	movq	$0, (%rax)
	movl	$0, %eax
.L219:
	movl	%eax, -24(%rbp)
	cmpl	$0, -24(%rbp)
	setne	%al
	movzbl	%al, %eax
	testq	%rax, %rax
	je	.L217
	movl	-24(%rbp), %eax
	movq	$.LC5, 8(%rsp)
	movl	$1, (%rsp)
	movl	%eax, %r9d
	movl	$.LC3, %r8d
	movl	$.LC6, %ecx
	movl	$__func__.25328, %edx
	movl	$215, %esi
	movl	$1140850689, %edi
	movl	$0, %eax
	call	PetscError
	jmp	.L220
.L217:
	.loc 4 218 0
	movl	$0, -20(%rbp)
	jmp	.L221
.L223:
	.loc 4 219 0
	movq	-80(%rbp), %rax
	movq	(%rax), %rax
	movl	-20(%rbp), %edx
	movslq	%edx, %rdx
	salq	$3, %rdx
	leaq	(%rax,%rdx), %rsi
	movl	-20(%rbp), %eax
	cltq
	salq	$3, %rax
	addq	-64(%rbp), %rax
	movq	(%rax), %rdx
	movl	-20(%rbp), %eax
	cltq
	salq	$3, %rax
	addq	-56(%rbp), %rax
	movq	(%rax), %rbx
	movl	-68(%rbp), %ecx
	movq	-40(%rbp), %rax
	movq	%rsi, %r8
	movq	%rbx, %rsi
	movq	%rax, %rdi
	call	MatGetSubMatrix_SeqBAIJ
	movl	%eax, -24(%rbp)
	cmpl	$0, -24(%rbp)
	setne	%al
	movzbl	%al, %eax
	testq	%rax, %rax
	je	.L222
	movl	-24(%rbp), %eax
	movq	$.LC5, 8(%rsp)
	movl	$1, (%rsp)
	movl	%eax, %r9d
	movl	$.LC3, %r8d
	movl	$.LC6, %ecx
	movl	$__func__.25328, %edx
	movl	$219, %esi
	movl	$1140850689, %edi
	movl	$0, %eax
	call	PetscError
	jmp	.L220
.L222:
	.loc 4 218 0
	addl	$1, -20(%rbp)
.L221:
	movl	-20(%rbp), %eax
	cmpl	-44(%rbp), %eax
	jl	.L223
	.loc 4 221 0
	movq	petscstack(%rip), %rax
	testq	%rax, %rax
	je	.L224
	movq	petscstack(%rip), %rax
	movl	1792(%rax), %eax
	testl	%eax, %eax
	jle	.L224
	movq	petscstack(%rip), %rax
	movl	1792(%rax), %edx
	subl	$1, %edx
	movl	%edx, 1792(%rax)
	movq	petscstack(%rip), %rax
	movq	petscstack(%rip), %rdx
	movl	1792(%rdx), %edx
	movslq	%edx, %rdx
	movq	$0, (%rax,%rdx,8)
	movq	petscstack(%rip), %rax
	movq	petscstack(%rip), %rdx
	movl	1792(%rdx), %edx
	movslq	%edx, %rdx
	addq	$64, %rdx
	movq	$0, (%rax,%rdx,8)
	movq	petscstack(%rip), %rax
	movq	petscstack(%rip), %rdx
	movl	1792(%rdx), %edx
	movslq	%edx, %rdx
	subq	$-128, %rdx
	movq	$0, (%rax,%rdx,8)
	movq	petscstack(%rip), %rax
	movq	petscstack(%rip), %rdx
	movl	1792(%rdx), %edx
	movslq	%edx, %rdx
	addq	$384, %rdx
	movl	$0, (%rax,%rdx,4)
.L224:
	movl	$0, %eax
.L220:
	.loc 4 222 0
	addq	$88, %rsp
	popq	%rbx
	leave
	.cfi_def_cfa 7, 8
	ret
	.cfi_endproc
.LFE65:
	.size	MatGetSubMatrices_SeqBAIJ, .-MatGetSubMatrices_SeqBAIJ
.globl MatMult_SeqBAIJ_1
	.type	MatMult_SeqBAIJ_1, @function
MatMult_SeqBAIJ_1:
.LFB66:
	.loc 4 232 0
	.cfi_startproc
	pushq	%rbp
	.cfi_def_cfa_offset 16
	.cfi_offset 6, -16
	movq	%rsp, %rbp
	.cfi_def_cfa_register 6
	subq	$192, %rsp
	movq	%rdi, -152(%rbp)
	movq	%rsi, -160(%rbp)
	movq	%rdx, -168(%rbp)
	.loc 4 233 0
	movq	-152(%rbp), %rax
	movq	472(%rax), %rax
	movq	%rax, -120(%rbp)
	.loc 4 238 0
	movl	$0, -76(%rbp)
	.loc 4 239 0
	movq	$0, -56(%rbp)
	.loc 4 240 0
	movq	-120(%rbp), %rax
	movl	100(%rax), %eax
	movl	%eax, -44(%rbp)
	.loc 4 242 0
	movq	petscstack(%rip), %rax
	testq	%rax, %rax
	je	.L252
	movq	petscstack(%rip), %rax
	movl	1792(%rax), %eax
	cmpl	$63, %eax
	jg	.L253
	movq	petscstack(%rip), %rax
	movq	petscstack(%rip), %rdx
	movl	1792(%rdx), %edx
	movslq	%edx, %rdx
	movq	$__func__.25437, (%rax,%rdx,8)
	movq	petscstack(%rip), %rax
	movq	petscstack(%rip), %rdx
	movl	1792(%rdx), %edx
	movslq	%edx, %rdx
	addq	$64, %rdx
	movq	$.LC6, (%rax,%rdx,8)
	movq	petscstack(%rip), %rax
	movq	petscstack(%rip), %rdx
	movl	1792(%rdx), %edx
	movslq	%edx, %rdx
	subq	$-128, %rdx
	movq	$.LC3, (%rax,%rdx,8)
	movq	petscstack(%rip), %rax
	movq	petscstack(%rip), %rdx
	movl	1792(%rdx), %edx
	movslq	%edx, %rdx
	addq	$384, %rdx
	movl	$242, (%rax,%rdx,4)
	movq	petscstack(%rip), %rax
	movl	1792(%rax), %edx
	addl	$1, %edx
	movl	%edx, 1792(%rax)
	jmp	.L251
.L252:
	nop
	jmp	.L251
.L253:
	nop
.L251:
	.loc 4 243 0
	leaq	-136(%rbp), %rdx
	movq	-160(%rbp), %rax
	movq	%rdx, %rsi
	movq	%rax, %rdi
	call	VecGetArrayRead
	movl	%eax, -92(%rbp)
	cmpl	$0, -92(%rbp)
	setne	%al
	movzbl	%al, %eax
	testq	%rax, %rax
	je	.L231
	movl	-92(%rbp), %eax
	movq	$.LC5, 8(%rsp)
	movl	$1, (%rsp)
	movl	%eax, %r9d
	movl	$.LC3, %r8d
	movl	$.LC6, %ecx
	movl	$__func__.25437, %edx
	movl	$243, %esi
	movl	$1140850689, %edi
	movl	$0, %eax
	call	PetscError
	jmp	.L232
.L231:
	.loc 4 244 0
	leaq	-128(%rbp), %rdx
	movq	-168(%rbp), %rax
	movq	%rdx, %rsi
	movq	%rax, %rdi
	call	VecGetArray
	movl	%eax, -92(%rbp)
	cmpl	$0, -92(%rbp)
	setne	%al
	movzbl	%al, %eax
	testq	%rax, %rax
	je	.L233
	movl	-92(%rbp), %eax
	movq	$.LC5, 8(%rsp)
	movl	$1, (%rsp)
	movl	%eax, %r9d
	movl	$.LC3, %r8d
	movl	$.LC6, %ecx
	movl	$__func__.25437, %edx
	movl	$244, %esi
	movl	$1140850689, %edi
	movl	$0, %eax
	call	PetscError
	jmp	.L232
.L233:
	.loc 4 246 0
	cmpl	$0, -44(%rbp)
	je	.L234
	.loc 4 247 0
	movq	-120(%rbp), %rax
	movl	104(%rax), %eax
	movl	%eax, -88(%rbp)
	.loc 4 248 0
	movq	-120(%rbp), %rax
	movq	112(%rax), %rax
	movq	%rax, -64(%rbp)
	.loc 4 249 0
	movq	-120(%rbp), %rax
	movq	120(%rax), %rax
	movq	%rax, -56(%rbp)
	.loc 4 250 0
	movl	-88(%rbp), %eax
	cltq
	leaq	0(,%rax,8), %rdx
	movq	-128(%rbp), %rax
	movq	%rdx, %rsi
	movq	%rax, %rdi
	call	PetscMemzero
	movl	%eax, -92(%rbp)
	cmpl	$0, -92(%rbp)
	setne	%al
	movzbl	%al, %eax
	testq	%rax, %rax
	je	.L235
	movl	-92(%rbp), %eax
	movq	$.LC5, 8(%rsp)
	movl	$1, (%rsp)
	movl	%eax, %r9d
	movl	$.LC3, %r8d
	movl	$.LC6, %ecx
	movl	$__func__.25437, %edx
	movl	$250, %esi
	movl	$1140850689, %edi
	movl	$0, %eax
	call	PetscError
	jmp	.L232
.L234:
	.loc 4 252 0
	movq	-120(%rbp), %rax
	movl	228(%rax), %eax
	movl	%eax, -88(%rbp)
	.loc 4 253 0
	movq	-120(%rbp), %rax
	movq	136(%rax), %rax
	movq	%rax, -64(%rbp)
.L235:
	.loc 4 256 0
	movl	$0, -84(%rbp)
	jmp	.L236
.L245:
	.loc 4 257 0
	movq	-64(%rbp), %rax
	addq	$4, %rax
	movl	(%rax), %edx
	movq	-64(%rbp), %rax
	movl	(%rax), %eax
	movl	%edx, %ecx
	subl	%eax, %ecx
	movl	%ecx, %eax
	movl	%eax, -80(%rbp)
	.loc 4 258 0
	movq	-120(%rbp), %rax
	movq	168(%rax), %rdx
	movq	-64(%rbp), %rax
	movl	(%rax), %eax
	cltq
	salq	$3, %rax
	leaq	(%rdx,%rax), %rax
	movq	%rax, -104(%rbp)
	.loc 4 259 0
	movq	-120(%rbp), %rax
	movq	144(%rax), %rdx
	movq	-64(%rbp), %rax
	movl	(%rax), %eax
	cltq
	salq	$2, %rax
	leaq	(%rdx,%rax), %rax
	movq	%rax, -72(%rbp)
	.loc 4 260 0
	addq	$4, -64(%rbp)
.LBB2:
	.loc 4 261 0
	movq	-72(%rbp), %rax
	movl	-80(%rbp), %edx
	movslq	%edx, %rdx
	salq	$2, %rdx
	addq	%rdx, %rax
	movq	%rax, -40(%rbp)
	movl	-80(%rbp), %eax
	cltq
	salq	$3, %rax
	addq	-72(%rbp), %rax
	movq	%rax, -32(%rbp)
	jmp	.L237
.L238:
	addq	$64, -40(%rbp)
.L237:
	movq	-40(%rbp), %rax
	cmpq	-32(%rbp), %rax
	jb	.L238
.LBE2:
.LBB3:
	.loc 4 262 0
	movq	-104(%rbp), %rax
	movl	-80(%rbp), %edx
	movslq	%edx, %rdx
	salq	$3, %rdx
	addq	%rdx, %rax
	movq	%rax, -24(%rbp)
	movl	-80(%rbp), %eax
	cltq
	salq	$4, %rax
	addq	-104(%rbp), %rax
	movq	%rax, -16(%rbp)
	jmp	.L239
.L240:
	addq	$64, -24(%rbp)
.L239:
	movq	-24(%rbp), %rax
	cmpq	-16(%rbp), %rax
	jb	.L240
.LBE3:
	.loc 4 263 0
	movl	$0, %eax
	movq	%rax, -112(%rbp)
.LBB4:
	.loc 4 264 0
	movl	$0, -4(%rbp)
	jmp	.L241
.L242:
	movl	-4(%rbp), %eax
	cltq
	salq	$3, %rax
	addq	-104(%rbp), %rax
	vmovsd	(%rax), %xmm1
	movq	-136(%rbp), %rdx
	movl	-4(%rbp), %eax
	cltq
	salq	$2, %rax
	addq	-72(%rbp), %rax
	movl	(%rax), %eax
	cltq
	salq	$3, %rax
	leaq	(%rdx,%rax), %rax
	vmovsd	(%rax), %xmm0
	vmulsd	%xmm0, %xmm1, %xmm0
	vmovsd	-112(%rbp), %xmm1
	vaddsd	%xmm0, %xmm1, %xmm0
	vmovsd	%xmm0, -112(%rbp)
	addl	$1, -4(%rbp)
.L241:
	movl	-4(%rbp), %eax
	cmpl	-80(%rbp), %eax
	jl	.L242
.LBE4:
	.loc 4 265 0
	cmpl	$0, -44(%rbp)
	je	.L243
	.loc 4 266 0
	movq	-128(%rbp), %rdx
	movl	-84(%rbp), %eax
	cltq
	salq	$2, %rax
	addq	-56(%rbp), %rax
	movl	(%rax), %eax
	cltq
	salq	$3, %rax
	addq	%rax, %rdx
	movq	-112(%rbp), %rax
	movq	%rax, (%rdx)
	jmp	.L244
.L243:
	.loc 4 268 0
	cmpl	$0, -80(%rbp)
	setg	%al
	movzbl	%al, %eax
	addl	%eax, -76(%rbp)
	.loc 4 269 0
	movq	-128(%rbp), %rax
	movl	-84(%rbp), %edx
	movslq	%edx, %rdx
	salq	$3, %rdx
	leaq	(%rax,%rdx), %rdx
	movq	-112(%rbp), %rax
	movq	%rax, (%rdx)
.L244:
	.loc 4 256 0
	addl	$1, -84(%rbp)
.L236:
	movl	-84(%rbp), %eax
	cmpl	-88(%rbp), %eax
	jl	.L245
	.loc 4 272 0
	leaq	-136(%rbp), %rdx
	movq	-160(%rbp), %rax
	movq	%rdx, %rsi
	movq	%rax, %rdi
	call	VecRestoreArrayRead
	movl	%eax, -92(%rbp)
	cmpl	$0, -92(%rbp)
	setne	%al
	movzbl	%al, %eax
	testq	%rax, %rax
	je	.L246
	movl	-92(%rbp), %eax
	movq	$.LC5, 8(%rsp)
	movl	$1, (%rsp)
	movl	%eax, %r9d
	movl	$.LC3, %r8d
	movl	$.LC6, %ecx
	movl	$__func__.25437, %edx
	movl	$272, %esi
	movl	$1140850689, %edi
	movl	$0, %eax
	call	PetscError
	jmp	.L232
.L246:
	.loc 4 273 0
	leaq	-128(%rbp), %rdx
	movq	-168(%rbp), %rax
	movq	%rdx, %rsi
	movq	%rax, %rdi
	call	VecRestoreArray
	movl	%eax, -92(%rbp)
	cmpl	$0, -92(%rbp)
	setne	%al
	movzbl	%al, %eax
	testq	%rax, %rax
	je	.L247
	movl	-92(%rbp), %eax
	movq	$.LC5, 8(%rsp)
	movl	$1, (%rsp)
	movl	%eax, %r9d
	movl	$.LC3, %r8d
	movl	$.LC6, %ecx
	movl	$__func__.25437, %edx
	movl	$273, %esi
	movl	$1140850689, %edi
	movl	$0, %eax
	call	PetscError
	jmp	.L232
.L247:
	.loc 4 274 0
	movq	-120(%rbp), %rax
	movl	128(%rax), %eax
	vcvtsi2sd	%eax, %xmm0, %xmm0
	vaddsd	%xmm0, %xmm0, %xmm0
	vcvtsi2sd	-76(%rbp), %xmm1, %xmm1
	vsubsd	%xmm1, %xmm0, %xmm0
	vmovsd	_TotalFlops(%rip), %xmm1
	vaddsd	%xmm1, %xmm0, %xmm0
	vmovsd	%xmm0, _TotalFlops(%rip)
	movl	$0, -92(%rbp)
	cmpl	$0, -92(%rbp)
	setne	%al
	movzbl	%al, %eax
	testq	%rax, %rax
	je	.L248
	movl	-92(%rbp), %eax
	movq	$.LC5, 8(%rsp)
	movl	$1, (%rsp)
	movl	%eax, %r9d
	movl	$.LC3, %r8d
	movl	$.LC6, %ecx
	movl	$__func__.25437, %edx
	movl	$274, %esi
	movl	$1140850689, %edi
	movl	$0, %eax
	call	PetscError
	jmp	.L232
.L248:
	.loc 4 275 0
	movq	petscstack(%rip), %rax
	testq	%rax, %rax
	je	.L249
	movq	petscstack(%rip), %rax
	movl	1792(%rax), %eax
	testl	%eax, %eax
	jle	.L249
	movq	petscstack(%rip), %rax
	movl	1792(%rax), %edx
	subl	$1, %edx
	movl	%edx, 1792(%rax)
	movq	petscstack(%rip), %rax
	movq	petscstack(%rip), %rdx
	movl	1792(%rdx), %edx
	movslq	%edx, %rdx
	movq	$0, (%rax,%rdx,8)
	movq	petscstack(%rip), %rax
	movq	petscstack(%rip), %rdx
	movl	1792(%rdx), %edx
	movslq	%edx, %rdx
	addq	$64, %rdx
	movq	$0, (%rax,%rdx,8)
	movq	petscstack(%rip), %rax
	movq	petscstack(%rip), %rdx
	movl	1792(%rdx), %edx
	movslq	%edx, %rdx
	subq	$-128, %rdx
	movq	$0, (%rax,%rdx,8)
	movq	petscstack(%rip), %rax
	movq	petscstack(%rip), %rdx
	movl	1792(%rdx), %edx
	movslq	%edx, %rdx
	addq	$384, %rdx
	movl	$0, (%rax,%rdx,4)
.L249:
	movl	$0, %eax
.L232:
	.loc 4 276 0
	leave
	.cfi_def_cfa 7, 8
	ret
	.cfi_endproc
.LFE66:
	.size	MatMult_SeqBAIJ_1, .-MatMult_SeqBAIJ_1
.globl MatMult_SeqBAIJ_2
	.type	MatMult_SeqBAIJ_2, @function
MatMult_SeqBAIJ_2:
.LFB67:
	.loc 4 281 0
	.cfi_startproc
	pushq	%rbp
	.cfi_def_cfa_offset 16
	.cfi_offset 6, -16
	movq	%rsp, %rbp
	.cfi_def_cfa_register 6
	subq	$224, %rsp
	movq	%rdi, -184(%rbp)
	movq	%rsi, -192(%rbp)
	movq	%rdx, -200(%rbp)
	.loc 4 282 0
	movq	-184(%rbp), %rax
	movq	472(%rax), %rax
	movq	%rax, -152(%rbp)
	.loc 4 283 0
	movq	$0, -144(%rbp)
	.loc 4 288 0
	movq	$0, -48(%rbp)
	movl	$0, -40(%rbp)
	.loc 4 289 0
	movq	-152(%rbp), %rax
	movl	100(%rax), %eax
	movl	%eax, -36(%rbp)
	.loc 4 291 0
	movq	petscstack(%rip), %rax
	testq	%rax, %rax
	je	.L277
	movq	petscstack(%rip), %rax
	movl	1792(%rax), %eax
	cmpl	$63, %eax
	jg	.L278
	movq	petscstack(%rip), %rax
	movq	petscstack(%rip), %rdx
	movl	1792(%rdx), %edx
	movslq	%edx, %rdx
	movq	$__func__.25630, (%rax,%rdx,8)
	movq	petscstack(%rip), %rax
	movq	petscstack(%rip), %rdx
	movl	1792(%rdx), %edx
	movslq	%edx, %rdx
	addq	$64, %rdx
	movq	$.LC6, (%rax,%rdx,8)
	movq	petscstack(%rip), %rax
	movq	petscstack(%rip), %rdx
	movl	1792(%rdx), %edx
	movslq	%edx, %rdx
	subq	$-128, %rdx
	movq	$.LC3, (%rax,%rdx,8)
	movq	petscstack(%rip), %rax
	movq	petscstack(%rip), %rdx
	movl	1792(%rdx), %edx
	movslq	%edx, %rdx
	addq	$384, %rdx
	movl	$291, (%rax,%rdx,4)
	movq	petscstack(%rip), %rax
	movl	1792(%rax), %edx
	addl	$1, %edx
	movl	%edx, 1792(%rax)
	jmp	.L276
.L277:
	nop
	jmp	.L276
.L278:
	nop
.L276:
	.loc 4 292 0
	leaq	-168(%rbp), %rdx
	movq	-192(%rbp), %rax
	movq	%rdx, %rsi
	movq	%rax, %rdi
	call	VecGetArrayRead
	movl	%eax, -84(%rbp)
	cmpl	$0, -84(%rbp)
	setne	%al
	movzbl	%al, %eax
	testq	%rax, %rax
	je	.L256
	movl	-84(%rbp), %eax
	movq	$.LC5, 8(%rsp)
	movl	$1, (%rsp)
	movl	%eax, %r9d
	movl	$.LC3, %r8d
	movl	$.LC6, %ecx
	movl	$__func__.25630, %edx
	movl	$292, %esi
	movl	$1140850689, %edi
	movl	$0, %eax
	call	PetscError
	jmp	.L257
.L256:
	.loc 4 293 0
	leaq	-160(%rbp), %rdx
	movq	-200(%rbp), %rax
	movq	%rdx, %rsi
	movq	%rax, %rdi
	call	VecGetArray
	movl	%eax, -84(%rbp)
	cmpl	$0, -84(%rbp)
	setne	%al
	movzbl	%al, %eax
	testq	%rax, %rax
	je	.L258
	movl	-84(%rbp), %eax
	movq	$.LC5, 8(%rsp)
	movl	$1, (%rsp)
	movl	%eax, %r9d
	movl	$.LC3, %r8d
	movl	$.LC6, %ecx
	movl	$__func__.25630, %edx
	movl	$293, %esi
	movl	$1140850689, %edi
	movl	$0, %eax
	call	PetscError
	jmp	.L257
.L258:
	.loc 4 295 0
	movq	-152(%rbp), %rax
	movq	144(%rax), %rax
	movq	%rax, -72(%rbp)
	.loc 4 296 0
	movq	-152(%rbp), %rax
	movq	168(%rax), %rax
	movq	%rax, -96(%rbp)
	.loc 4 297 0
	cmpl	$0, -36(%rbp)
	je	.L259
	.loc 4 298 0
	movq	-152(%rbp), %rax
	movl	104(%rax), %eax
	movl	%eax, -80(%rbp)
	.loc 4 299 0
	movq	-152(%rbp), %rax
	movq	112(%rax), %rax
	movq	%rax, -64(%rbp)
	.loc 4 300 0
	movq	-152(%rbp), %rax
	movq	120(%rax), %rax
	movq	%rax, -48(%rbp)
	jmp	.L260
.L259:
	.loc 4 302 0
	movq	-152(%rbp), %rax
	movl	228(%rax), %eax
	movl	%eax, -80(%rbp)
	.loc 4 303 0
	movq	-152(%rbp), %rax
	movq	136(%rax), %rax
	movq	%rax, -64(%rbp)
	.loc 4 304 0
	movq	-160(%rbp), %rax
	movq	%rax, -144(%rbp)
.L260:
	.loc 4 307 0
	movl	$0, -76(%rbp)
	jmp	.L261
.L270:
	.loc 4 308 0
	movq	-64(%rbp), %rax
	addq	$4, %rax
	movl	(%rax), %edx
	movq	-64(%rbp), %rax
	movl	(%rax), %eax
	movl	%edx, %ecx
	subl	%eax, %ecx
	movl	%ecx, %eax
	movl	%eax, -52(%rbp)
	addq	$4, -64(%rbp)
	.loc 4 309 0
	movl	$0, %eax
	movq	%rax, -136(%rbp)
	movl	$0, %eax
	movq	%rax, -128(%rbp)
	.loc 4 310 0
	cmpl	$0, -52(%rbp)
	setg	%al
	movzbl	%al, %eax
	addl	%eax, -40(%rbp)
.LBB5:
	.loc 4 311 0
	movq	-72(%rbp), %rax
	movl	-52(%rbp), %edx
	movslq	%edx, %rdx
	salq	$2, %rdx
	addq	%rdx, %rax
	movq	%rax, -32(%rbp)
	movl	-52(%rbp), %eax
	cltq
	salq	$3, %rax
	addq	-72(%rbp), %rax
	movq	%rax, -24(%rbp)
	jmp	.L262
.L263:
	addq	$64, -32(%rbp)
.L262:
	movq	-32(%rbp), %rax
	cmpq	-24(%rbp), %rax
	jb	.L263
.LBE5:
.LBB6:
	.loc 4 312 0
	movq	-96(%rbp), %rax
	movl	-52(%rbp), %edx
	movslq	%edx, %rdx
	salq	$5, %rdx
	addq	%rdx, %rax
	movq	%rax, -16(%rbp)
	movl	-52(%rbp), %eax
	cltq
	salq	$6, %rax
	addq	-96(%rbp), %rax
	movq	%rax, -8(%rbp)
	jmp	.L264
.L265:
	addq	$64, -16(%rbp)
.L264:
	movq	-16(%rbp), %rax
	cmpq	-8(%rbp), %rax
	jb	.L265
.LBE6:
	.loc 4 313 0
	movl	$0, -56(%rbp)
	jmp	.L266
.L267:
	.loc 4 314 0
	movq	-168(%rbp), %rdx
	movq	-72(%rbp), %rax
	movl	(%rax), %eax
	cltq
	salq	$4, %rax
	leaq	(%rdx,%rax), %rax
	movq	%rax, -120(%rbp)
	addq	$4, -72(%rbp)
	movq	-120(%rbp), %rax
	movq	(%rax), %rax
	movq	%rax, -112(%rbp)
	movq	-120(%rbp), %rax
	addq	$8, %rax
	movq	(%rax), %rax
	movq	%rax, -104(%rbp)
	.loc 4 315 0
	movq	-96(%rbp), %rax
	vmovsd	(%rax), %xmm0
	vmulsd	-112(%rbp), %xmm0, %xmm1
	movq	-96(%rbp), %rax
	addq	$16, %rax
	vmovsd	(%rax), %xmm0
	vmulsd	-104(%rbp), %xmm0, %xmm0
	vaddsd	%xmm0, %xmm1, %xmm0
	vmovsd	-136(%rbp), %xmm1
	vaddsd	%xmm0, %xmm1, %xmm0
	vmovsd	%xmm0, -136(%rbp)
	.loc 4 316 0
	movq	-96(%rbp), %rax
	addq	$8, %rax
	vmovsd	(%rax), %xmm0
	vmulsd	-112(%rbp), %xmm0, %xmm1
	movq	-96(%rbp), %rax
	addq	$24, %rax
	vmovsd	(%rax), %xmm0
	vmulsd	-104(%rbp), %xmm0, %xmm0
	vaddsd	%xmm0, %xmm1, %xmm0
	vmovsd	-128(%rbp), %xmm1
	vaddsd	%xmm0, %xmm1, %xmm0
	vmovsd	%xmm0, -128(%rbp)
	.loc 4 317 0
	addq	$32, -96(%rbp)
	.loc 4 313 0
	addl	$1, -56(%rbp)
.L266:
	movl	-56(%rbp), %eax
	cmpl	-52(%rbp), %eax
	jl	.L267
	.loc 4 319 0
	cmpl	$0, -36(%rbp)
	je	.L268
	movq	-160(%rbp), %rdx
	movl	-76(%rbp), %eax
	cltq
	salq	$2, %rax
	addq	-48(%rbp), %rax
	movl	(%rax), %eax
	cltq
	salq	$4, %rax
	leaq	(%rdx,%rax), %rax
	movq	%rax, -144(%rbp)
.L268:
	.loc 4 320 0
	movq	-144(%rbp), %rax
	movq	-136(%rbp), %rdx
	movq	%rdx, (%rax)
	movq	-144(%rbp), %rax
	leaq	8(%rax), %rdx
	movq	-128(%rbp), %rax
	movq	%rax, (%rdx)
	.loc 4 321 0
	cmpl	$0, -36(%rbp)
	jne	.L269
	addq	$16, -144(%rbp)
.L269:
	.loc 4 307 0
	addl	$1, -76(%rbp)
.L261:
	movl	-76(%rbp), %eax
	cmpl	-80(%rbp), %eax
	jl	.L270
	.loc 4 323 0
	leaq	-168(%rbp), %rdx
	movq	-192(%rbp), %rax
	movq	%rdx, %rsi
	movq	%rax, %rdi
	call	VecRestoreArrayRead
	movl	%eax, -84(%rbp)
	cmpl	$0, -84(%rbp)
	setne	%al
	movzbl	%al, %eax
	testq	%rax, %rax
	je	.L271
	movl	-84(%rbp), %eax
	movq	$.LC5, 8(%rsp)
	movl	$1, (%rsp)
	movl	%eax, %r9d
	movl	$.LC3, %r8d
	movl	$.LC6, %ecx
	movl	$__func__.25630, %edx
	movl	$323, %esi
	movl	$1140850689, %edi
	movl	$0, %eax
	call	PetscError
	jmp	.L257
.L271:
	.loc 4 324 0
	leaq	-160(%rbp), %rdx
	movq	-200(%rbp), %rax
	movq	%rdx, %rsi
	movq	%rax, %rdi
	call	VecRestoreArray
	movl	%eax, -84(%rbp)
	cmpl	$0, -84(%rbp)
	setne	%al
	movzbl	%al, %eax
	testq	%rax, %rax
	je	.L272
	movl	-84(%rbp), %eax
	movq	$.LC5, 8(%rsp)
	movl	$1, (%rsp)
	movl	%eax, %r9d
	movl	$.LC3, %r8d
	movl	$.LC6, %ecx
	movl	$__func__.25630, %edx
	movl	$324, %esi
	movl	$1140850689, %edi
	movl	$0, %eax
	call	PetscError
	jmp	.L257
.L272:
	.loc 4 325 0
	movq	-152(%rbp), %rax
	movl	128(%rax), %eax
	vcvtsi2sd	%eax, %xmm0, %xmm0
	vmovsd	.LC14(%rip), %xmm1
	vmulsd	%xmm1, %xmm0, %xmm1
	vcvtsi2sd	-40(%rbp), %xmm0, %xmm0
	vmovsd	.LC15(%rip), %xmm2
	vmulsd	%xmm2, %xmm0, %xmm0
	vaddsd	%xmm0, %xmm1, %xmm0
	vmovsd	_TotalFlops(%rip), %xmm1
	vaddsd	%xmm1, %xmm0, %xmm0
	vmovsd	%xmm0, _TotalFlops(%rip)
	movl	$0, -84(%rbp)
	cmpl	$0, -84(%rbp)
	setne	%al
	movzbl	%al, %eax
	testq	%rax, %rax
	je	.L273
	movl	-84(%rbp), %eax
	movq	$.LC5, 8(%rsp)
	movl	$1, (%rsp)
	movl	%eax, %r9d
	movl	$.LC3, %r8d
	movl	$.LC6, %ecx
	movl	$__func__.25630, %edx
	movl	$325, %esi
	movl	$1140850689, %edi
	movl	$0, %eax
	call	PetscError
	jmp	.L257
.L273:
	.loc 4 326 0
	movq	petscstack(%rip), %rax
	testq	%rax, %rax
	je	.L274
	movq	petscstack(%rip), %rax
	movl	1792(%rax), %eax
	testl	%eax, %eax
	jle	.L274
	movq	petscstack(%rip), %rax
	movl	1792(%rax), %edx
	subl	$1, %edx
	movl	%edx, 1792(%rax)
	movq	petscstack(%rip), %rax
	movq	petscstack(%rip), %rdx
	movl	1792(%rdx), %edx
	movslq	%edx, %rdx
	movq	$0, (%rax,%rdx,8)
	movq	petscstack(%rip), %rax
	movq	petscstack(%rip), %rdx
	movl	1792(%rdx), %edx
	movslq	%edx, %rdx
	addq	$64, %rdx
	movq	$0, (%rax,%rdx,8)
	movq	petscstack(%rip), %rax
	movq	petscstack(%rip), %rdx
	movl	1792(%rdx), %edx
	movslq	%edx, %rdx
	subq	$-128, %rdx
	movq	$0, (%rax,%rdx,8)
	movq	petscstack(%rip), %rax
	movq	petscstack(%rip), %rdx
	movl	1792(%rdx), %edx
	movslq	%edx, %rdx
	addq	$384, %rdx
	movl	$0, (%rax,%rdx,4)
.L274:
	movl	$0, %eax
.L257:
	.loc 4 327 0
	leave
	.cfi_def_cfa 7, 8
	ret
	.cfi_endproc
.LFE67:
	.size	MatMult_SeqBAIJ_2, .-MatMult_SeqBAIJ_2
.globl MatMult_SeqBAIJ_3
	.type	MatMult_SeqBAIJ_3, @function
MatMult_SeqBAIJ_3:
.LFB68:
	.loc 4 332 0
	.cfi_startproc
	pushq	%rbp
	.cfi_def_cfa_offset 16
	.cfi_offset 6, -16
	movq	%rsp, %rbp
	.cfi_def_cfa_register 6
	subq	$240, %rsp
	movq	%rdi, -200(%rbp)
	movq	%rsi, -208(%rbp)
	movq	%rdx, -216(%rbp)
	.loc 4 333 0
	movq	-200(%rbp), %rax
	movq	472(%rax), %rax
	movq	%rax, -168(%rbp)
	.loc 4 334 0
	movq	$0, -160(%rbp)
	.loc 4 338 0
	movq	$0, -48(%rbp)
	movl	$0, -40(%rbp)
	.loc 4 339 0
	movq	-168(%rbp), %rax
	movl	100(%rax), %eax
	movl	%eax, -36(%rbp)
	.loc 4 346 0
	movq	petscstack(%rip), %rax
	testq	%rax, %rax
	je	.L302
	movq	petscstack(%rip), %rax
	movl	1792(%rax), %eax
	cmpl	$63, %eax
	jg	.L303
	movq	petscstack(%rip), %rax
	movq	petscstack(%rip), %rdx
	movl	1792(%rdx), %edx
	movslq	%edx, %rdx
	movq	$__func__.25809, (%rax,%rdx,8)
	movq	petscstack(%rip), %rax
	movq	petscstack(%rip), %rdx
	movl	1792(%rdx), %edx
	movslq	%edx, %rdx
	addq	$64, %rdx
	movq	$.LC6, (%rax,%rdx,8)
	movq	petscstack(%rip), %rax
	movq	petscstack(%rip), %rdx
	movl	1792(%rdx), %edx
	movslq	%edx, %rdx
	subq	$-128, %rdx
	movq	$.LC3, (%rax,%rdx,8)
	movq	petscstack(%rip), %rax
	movq	petscstack(%rip), %rdx
	movl	1792(%rdx), %edx
	movslq	%edx, %rdx
	addq	$384, %rdx
	movl	$346, (%rax,%rdx,4)
	movq	petscstack(%rip), %rax
	movl	1792(%rax), %edx
	addl	$1, %edx
	movl	%edx, 1792(%rax)
	jmp	.L301
.L302:
	nop
	jmp	.L301
.L303:
	nop
.L301:
	.loc 4 347 0
	leaq	-184(%rbp), %rdx
	movq	-208(%rbp), %rax
	movq	%rdx, %rsi
	movq	%rax, %rdi
	call	VecGetArrayRead
	movl	%eax, -84(%rbp)
	cmpl	$0, -84(%rbp)
	setne	%al
	movzbl	%al, %eax
	testq	%rax, %rax
	je	.L281
	movl	-84(%rbp), %eax
	movq	$.LC5, 8(%rsp)
	movl	$1, (%rsp)
	movl	%eax, %r9d
	movl	$.LC3, %r8d
	movl	$.LC6, %ecx
	movl	$__func__.25809, %edx
	movl	$347, %esi
	movl	$1140850689, %edi
	movl	$0, %eax
	call	PetscError
	jmp	.L282
.L281:
	.loc 4 348 0
	leaq	-176(%rbp), %rdx
	movq	-216(%rbp), %rax
	movq	%rdx, %rsi
	movq	%rax, %rdi
	call	VecGetArray
	movl	%eax, -84(%rbp)
	cmpl	$0, -84(%rbp)
	setne	%al
	movzbl	%al, %eax
	testq	%rax, %rax
	je	.L283
	movl	-84(%rbp), %eax
	movq	$.LC5, 8(%rsp)
	movl	$1, (%rsp)
	movl	%eax, %r9d
	movl	$.LC3, %r8d
	movl	$.LC6, %ecx
	movl	$__func__.25809, %edx
	movl	$348, %esi
	movl	$1140850689, %edi
	movl	$0, %eax
	call	PetscError
	jmp	.L282
.L283:
	.loc 4 350 0
	movq	-168(%rbp), %rax
	movq	144(%rax), %rax
	movq	%rax, -72(%rbp)
	.loc 4 351 0
	movq	-168(%rbp), %rax
	movq	168(%rax), %rax
	movq	%rax, -96(%rbp)
	.loc 4 352 0
	cmpl	$0, -36(%rbp)
	je	.L284
	.loc 4 353 0
	movq	-168(%rbp), %rax
	movl	104(%rax), %eax
	movl	%eax, -80(%rbp)
	.loc 4 354 0
	movq	-168(%rbp), %rax
	movq	112(%rax), %rax
	movq	%rax, -64(%rbp)
	.loc 4 355 0
	movq	-168(%rbp), %rax
	movq	120(%rax), %rax
	movq	%rax, -48(%rbp)
	jmp	.L285
.L284:
	.loc 4 357 0
	movq	-168(%rbp), %rax
	movl	228(%rax), %eax
	movl	%eax, -80(%rbp)
	.loc 4 358 0
	movq	-168(%rbp), %rax
	movq	136(%rax), %rax
	movq	%rax, -64(%rbp)
	.loc 4 359 0
	movq	-176(%rbp), %rax
	movq	%rax, -160(%rbp)
.L285:
	.loc 4 362 0
	movl	$0, -76(%rbp)
	jmp	.L286
.L295:
	.loc 4 363 0
	movq	-64(%rbp), %rax
	addq	$4, %rax
	movl	(%rax), %edx
	movq	-64(%rbp), %rax
	movl	(%rax), %eax
	movl	%edx, %ecx
	subl	%eax, %ecx
	movl	%ecx, %eax
	movl	%eax, -52(%rbp)
	addq	$4, -64(%rbp)
	.loc 4 364 0
	movl	$0, %eax
	movq	%rax, -152(%rbp)
	movl	$0, %eax
	movq	%rax, -144(%rbp)
	movl	$0, %eax
	movq	%rax, -136(%rbp)
	.loc 4 365 0
	cmpl	$0, -52(%rbp)
	setg	%al
	movzbl	%al, %eax
	addl	%eax, -40(%rbp)
.LBB7:
	.loc 4 366 0
	movq	-72(%rbp), %rax
	movl	-52(%rbp), %edx
	movslq	%edx, %rdx
	salq	$2, %rdx
	addq	%rdx, %rax
	movq	%rax, -32(%rbp)
	movl	-52(%rbp), %eax
	cltq
	salq	$3, %rax
	addq	-72(%rbp), %rax
	movq	%rax, -24(%rbp)
	jmp	.L287
.L288:
	addq	$64, -32(%rbp)
.L287:
	movq	-32(%rbp), %rax
	cmpq	-24(%rbp), %rax
	jb	.L288
.LBE7:
.LBB8:
	.loc 4 367 0
	movq	-96(%rbp), %rcx
	movl	-52(%rbp), %eax
	movslq	%eax, %rdx
	movq	%rdx, %rax
	salq	$3, %rax
	addq	%rdx, %rax
	salq	$3, %rax
	leaq	(%rcx,%rax), %rax
	movq	%rax, -16(%rbp)
	movl	-52(%rbp), %eax
	movslq	%eax, %rdx
	movq	%rdx, %rax
	salq	$3, %rax
	addq	%rdx, %rax
	salq	$4, %rax
	addq	-96(%rbp), %rax
	movq	%rax, -8(%rbp)
	jmp	.L289
.L290:
	addq	$64, -16(%rbp)
.L289:
	movq	-16(%rbp), %rax
	cmpq	-8(%rbp), %rax
	jb	.L290
.LBE8:
	.loc 4 368 0
	movl	$0, -56(%rbp)
	jmp	.L291
.L292:
	.loc 4 369 0
	movq	-184(%rbp), %rcx
	movq	-72(%rbp), %rax
	movl	(%rax), %eax
	movslq	%eax, %rdx
	movq	%rdx, %rax
	addq	%rax, %rax
	addq	%rdx, %rax
	salq	$3, %rax
	leaq	(%rcx,%rax), %rax
	movq	%rax, -104(%rbp)
	addq	$4, -72(%rbp)
	movq	-104(%rbp), %rax
	movq	(%rax), %rax
	movq	%rax, -128(%rbp)
	movq	-104(%rbp), %rax
	addq	$8, %rax
	movq	(%rax), %rax
	movq	%rax, -120(%rbp)
	movq	-104(%rbp), %rax
	addq	$16, %rax
	movq	(%rax), %rax
	movq	%rax, -112(%rbp)
	.loc 4 370 0
	movq	-96(%rbp), %rax
	vmovsd	(%rax), %xmm0
	vmulsd	-128(%rbp), %xmm0, %xmm1
	movq	-96(%rbp), %rax
	addq	$24, %rax
	vmovsd	(%rax), %xmm0
	vmulsd	-120(%rbp), %xmm0, %xmm0
	vaddsd	%xmm0, %xmm1, %xmm1
	movq	-96(%rbp), %rax
	addq	$48, %rax
	vmovsd	(%rax), %xmm0
	vmulsd	-112(%rbp), %xmm0, %xmm0
	vaddsd	%xmm0, %xmm1, %xmm0
	vmovsd	-152(%rbp), %xmm1
	vaddsd	%xmm0, %xmm1, %xmm0
	vmovsd	%xmm0, -152(%rbp)
	.loc 4 371 0
	movq	-96(%rbp), %rax
	addq	$8, %rax
	vmovsd	(%rax), %xmm0
	vmulsd	-128(%rbp), %xmm0, %xmm1
	movq	-96(%rbp), %rax
	addq	$32, %rax
	vmovsd	(%rax), %xmm0
	vmulsd	-120(%rbp), %xmm0, %xmm0
	vaddsd	%xmm0, %xmm1, %xmm1
	movq	-96(%rbp), %rax
	addq	$56, %rax
	vmovsd	(%rax), %xmm0
	vmulsd	-112(%rbp), %xmm0, %xmm0
	vaddsd	%xmm0, %xmm1, %xmm0
	vmovsd	-144(%rbp), %xmm1
	vaddsd	%xmm0, %xmm1, %xmm0
	vmovsd	%xmm0, -144(%rbp)
	.loc 4 372 0
	movq	-96(%rbp), %rax
	addq	$16, %rax
	vmovsd	(%rax), %xmm0
	vmulsd	-128(%rbp), %xmm0, %xmm1
	movq	-96(%rbp), %rax
	addq	$40, %rax
	vmovsd	(%rax), %xmm0
	vmulsd	-120(%rbp), %xmm0, %xmm0
	vaddsd	%xmm0, %xmm1, %xmm1
	movq	-96(%rbp), %rax
	addq	$64, %rax
	vmovsd	(%rax), %xmm0
	vmulsd	-112(%rbp), %xmm0, %xmm0
	vaddsd	%xmm0, %xmm1, %xmm0
	vmovsd	-136(%rbp), %xmm1
	vaddsd	%xmm0, %xmm1, %xmm0
	vmovsd	%xmm0, -136(%rbp)
	.loc 4 373 0
	addq	$72, -96(%rbp)
	.loc 4 368 0
	addl	$1, -56(%rbp)
.L291:
	movl	-56(%rbp), %eax
	cmpl	-52(%rbp), %eax
	jl	.L292
	.loc 4 375 0
	cmpl	$0, -36(%rbp)
	je	.L293
	movq	-176(%rbp), %rcx
	movl	-76(%rbp), %eax
	cltq
	salq	$2, %rax
	addq	-48(%rbp), %rax
	movl	(%rax), %eax
	movslq	%eax, %rdx
	movq	%rdx, %rax
	addq	%rax, %rax
	addq	%rdx, %rax
	salq	$3, %rax
	leaq	(%rcx,%rax), %rax
	movq	%rax, -160(%rbp)
.L293:
	.loc 4 376 0
	movq	-160(%rbp), %rax
	movq	-152(%rbp), %rdx
	movq	%rdx, (%rax)
	movq	-160(%rbp), %rax
	leaq	8(%rax), %rdx
	movq	-144(%rbp), %rax
	movq	%rax, (%rdx)
	movq	-160(%rbp), %rax
	leaq	16(%rax), %rdx
	movq	-136(%rbp), %rax
	movq	%rax, (%rdx)
	.loc 4 377 0
	cmpl	$0, -36(%rbp)
	jne	.L294
	addq	$24, -160(%rbp)
.L294:
	.loc 4 362 0
	addl	$1, -76(%rbp)
.L286:
	movl	-76(%rbp), %eax
	cmpl	-80(%rbp), %eax
	jl	.L295
	.loc 4 379 0
	leaq	-184(%rbp), %rdx
	movq	-208(%rbp), %rax
	movq	%rdx, %rsi
	movq	%rax, %rdi
	call	VecRestoreArrayRead
	movl	%eax, -84(%rbp)
	cmpl	$0, -84(%rbp)
	setne	%al
	movzbl	%al, %eax
	testq	%rax, %rax
	je	.L296
	movl	-84(%rbp), %eax
	movq	$.LC5, 8(%rsp)
	movl	$1, (%rsp)
	movl	%eax, %r9d
	movl	$.LC3, %r8d
	movl	$.LC6, %ecx
	movl	$__func__.25809, %edx
	movl	$379, %esi
	movl	$1140850689, %edi
	movl	$0, %eax
	call	PetscError
	jmp	.L282
.L296:
	.loc 4 380 0
	leaq	-176(%rbp), %rdx
	movq	-216(%rbp), %rax
	movq	%rdx, %rsi
	movq	%rax, %rdi
	call	VecRestoreArray
	movl	%eax, -84(%rbp)
	cmpl	$0, -84(%rbp)
	setne	%al
	movzbl	%al, %eax
	testq	%rax, %rax
	je	.L297
	movl	-84(%rbp), %eax
	movq	$.LC5, 8(%rsp)
	movl	$1, (%rsp)
	movl	%eax, %r9d
	movl	$.LC3, %r8d
	movl	$.LC6, %ecx
	movl	$__func__.25809, %edx
	movl	$380, %esi
	movl	$1140850689, %edi
	movl	$0, %eax
	call	PetscError
	jmp	.L282
.L297:
	.loc 4 381 0
	movq	-168(%rbp), %rax
	movl	128(%rax), %eax
	vcvtsi2sd	%eax, %xmm0, %xmm0
	vmovsd	.LC16(%rip), %xmm1
	vmulsd	%xmm1, %xmm0, %xmm1
	vcvtsi2sd	-40(%rbp), %xmm0, %xmm0
	vmovsd	.LC17(%rip), %xmm2
	vmulsd	%xmm2, %xmm0, %xmm0
	vaddsd	%xmm0, %xmm1, %xmm0
	vmovsd	_TotalFlops(%rip), %xmm1
	vaddsd	%xmm1, %xmm0, %xmm0
	vmovsd	%xmm0, _TotalFlops(%rip)
	movl	$0, -84(%rbp)
	cmpl	$0, -84(%rbp)
	setne	%al
	movzbl	%al, %eax
	testq	%rax, %rax
	je	.L298
	movl	-84(%rbp), %eax
	movq	$.LC5, 8(%rsp)
	movl	$1, (%rsp)
	movl	%eax, %r9d
	movl	$.LC3, %r8d
	movl	$.LC6, %ecx
	movl	$__func__.25809, %edx
	movl	$381, %esi
	movl	$1140850689, %edi
	movl	$0, %eax
	call	PetscError
	jmp	.L282
.L298:
	.loc 4 382 0
	movq	petscstack(%rip), %rax
	testq	%rax, %rax
	je	.L299
	movq	petscstack(%rip), %rax
	movl	1792(%rax), %eax
	testl	%eax, %eax
	jle	.L299
	movq	petscstack(%rip), %rax
	movl	1792(%rax), %edx
	subl	$1, %edx
	movl	%edx, 1792(%rax)
	movq	petscstack(%rip), %rax
	movq	petscstack(%rip), %rdx
	movl	1792(%rdx), %edx
	movslq	%edx, %rdx
	movq	$0, (%rax,%rdx,8)
	movq	petscstack(%rip), %rax
	movq	petscstack(%rip), %rdx
	movl	1792(%rdx), %edx
	movslq	%edx, %rdx
	addq	$64, %rdx
	movq	$0, (%rax,%rdx,8)
	movq	petscstack(%rip), %rax
	movq	petscstack(%rip), %rdx
	movl	1792(%rdx), %edx
	movslq	%edx, %rdx
	subq	$-128, %rdx
	movq	$0, (%rax,%rdx,8)
	movq	petscstack(%rip), %rax
	movq	petscstack(%rip), %rdx
	movl	1792(%rdx), %edx
	movslq	%edx, %rdx
	addq	$384, %rdx
	movl	$0, (%rax,%rdx,4)
.L299:
	movl	$0, %eax
.L282:
	.loc 4 383 0
	leave
	.cfi_def_cfa 7, 8
	ret
	.cfi_endproc
.LFE68:
	.size	MatMult_SeqBAIJ_3, .-MatMult_SeqBAIJ_3
.globl MatMult_SeqBAIJ_4
	.type	MatMult_SeqBAIJ_4, @function
MatMult_SeqBAIJ_4:
.LFB69:
	.loc 4 388 0
	.cfi_startproc
	pushq	%rbp
	.cfi_def_cfa_offset 16
	.cfi_offset 6, -16
	movq	%rsp, %rbp
	.cfi_def_cfa_register 6
	subq	$256, %rsp
	movq	%rdi, -216(%rbp)
	movq	%rsi, -224(%rbp)
	movq	%rdx, -232(%rbp)
	.loc 4 389 0
	movq	-216(%rbp), %rax
	movq	472(%rax), %rax
	movq	%rax, -184(%rbp)
	.loc 4 390 0
	movq	$0, -176(%rbp)
	.loc 4 394 0
	movq	$0, -48(%rbp)
	movl	$0, -40(%rbp)
	.loc 4 395 0
	movq	-184(%rbp), %rax
	movl	100(%rax), %eax
	movl	%eax, -36(%rbp)
	.loc 4 397 0
	movq	petscstack(%rip), %rax
	testq	%rax, %rax
	je	.L327
	movq	petscstack(%rip), %rax
	movl	1792(%rax), %eax
	cmpl	$63, %eax
	jg	.L328
	movq	petscstack(%rip), %rax
	movq	petscstack(%rip), %rdx
	movl	1792(%rdx), %edx
	movslq	%edx, %rdx
	movq	$__func__.26011, (%rax,%rdx,8)
	movq	petscstack(%rip), %rax
	movq	petscstack(%rip), %rdx
	movl	1792(%rdx), %edx
	movslq	%edx, %rdx
	addq	$64, %rdx
	movq	$.LC6, (%rax,%rdx,8)
	movq	petscstack(%rip), %rax
	movq	petscstack(%rip), %rdx
	movl	1792(%rdx), %edx
	movslq	%edx, %rdx
	subq	$-128, %rdx
	movq	$.LC3, (%rax,%rdx,8)
	movq	petscstack(%rip), %rax
	movq	petscstack(%rip), %rdx
	movl	1792(%rdx), %edx
	movslq	%edx, %rdx
	addq	$384, %rdx
	movl	$397, (%rax,%rdx,4)
	movq	petscstack(%rip), %rax
	movl	1792(%rax), %edx
	addl	$1, %edx
	movl	%edx, 1792(%rax)
	jmp	.L326
.L327:
	nop
	jmp	.L326
.L328:
	nop
.L326:
	.loc 4 398 0
	leaq	-200(%rbp), %rdx
	movq	-224(%rbp), %rax
	movq	%rdx, %rsi
	movq	%rax, %rdi
	call	VecGetArrayRead
	movl	%eax, -84(%rbp)
	cmpl	$0, -84(%rbp)
	setne	%al
	movzbl	%al, %eax
	testq	%rax, %rax
	je	.L306
	movl	-84(%rbp), %eax
	movq	$.LC5, 8(%rsp)
	movl	$1, (%rsp)
	movl	%eax, %r9d
	movl	$.LC3, %r8d
	movl	$.LC6, %ecx
	movl	$__func__.26011, %edx
	movl	$398, %esi
	movl	$1140850689, %edi
	movl	$0, %eax
	call	PetscError
	jmp	.L307
.L306:
	.loc 4 399 0
	leaq	-192(%rbp), %rdx
	movq	-232(%rbp), %rax
	movq	%rdx, %rsi
	movq	%rax, %rdi
	call	VecGetArray
	movl	%eax, -84(%rbp)
	cmpl	$0, -84(%rbp)
	setne	%al
	movzbl	%al, %eax
	testq	%rax, %rax
	je	.L308
	movl	-84(%rbp), %eax
	movq	$.LC5, 8(%rsp)
	movl	$1, (%rsp)
	movl	%eax, %r9d
	movl	$.LC3, %r8d
	movl	$.LC6, %ecx
	movl	$__func__.26011, %edx
	movl	$399, %esi
	movl	$1140850689, %edi
	movl	$0, %eax
	call	PetscError
	jmp	.L307
.L308:
	.loc 4 401 0
	movq	-184(%rbp), %rax
	movq	144(%rax), %rax
	movq	%rax, -72(%rbp)
	.loc 4 402 0
	movq	-184(%rbp), %rax
	movq	168(%rax), %rax
	movq	%rax, -96(%rbp)
	.loc 4 403 0
	cmpl	$0, -36(%rbp)
	je	.L309
	.loc 4 404 0
	movq	-184(%rbp), %rax
	movl	104(%rax), %eax
	movl	%eax, -80(%rbp)
	.loc 4 405 0
	movq	-184(%rbp), %rax
	movq	112(%rax), %rax
	movq	%rax, -64(%rbp)
	.loc 4 406 0
	movq	-184(%rbp), %rax
	movq	120(%rax), %rax
	movq	%rax, -48(%rbp)
	jmp	.L310
.L309:
	.loc 4 408 0
	movq	-184(%rbp), %rax
	movl	228(%rax), %eax
	movl	%eax, -80(%rbp)
	.loc 4 409 0
	movq	-184(%rbp), %rax
	movq	136(%rax), %rax
	movq	%rax, -64(%rbp)
	.loc 4 410 0
	movq	-192(%rbp), %rax
	movq	%rax, -176(%rbp)
.L310:
	.loc 4 413 0
	movl	$0, -76(%rbp)
	jmp	.L311
.L320:
	.loc 4 414 0
	movq	-64(%rbp), %rax
	addq	$4, %rax
	movl	(%rax), %edx
	movq	-64(%rbp), %rax
	movl	(%rax), %eax
	movl	%edx, %ecx
	subl	%eax, %ecx
	movl	%ecx, %eax
	movl	%eax, -52(%rbp)
	addq	$4, -64(%rbp)
	.loc 4 415 0
	movl	$0, %eax
	movq	%rax, -168(%rbp)
	movl	$0, %eax
	movq	%rax, -160(%rbp)
	movl	$0, %eax
	movq	%rax, -152(%rbp)
	movl	$0, %eax
	movq	%rax, -144(%rbp)
	.loc 4 416 0
	cmpl	$0, -52(%rbp)
	setg	%al
	movzbl	%al, %eax
	addl	%eax, -40(%rbp)
.LBB9:
	.loc 4 417 0
	movq	-72(%rbp), %rax
	movl	-52(%rbp), %edx
	movslq	%edx, %rdx
	salq	$2, %rdx
	addq	%rdx, %rax
	movq	%rax, -32(%rbp)
	movl	-52(%rbp), %eax
	cltq
	salq	$3, %rax
	addq	-72(%rbp), %rax
	movq	%rax, -24(%rbp)
	jmp	.L312
.L313:
	addq	$64, -32(%rbp)
.L312:
	movq	-32(%rbp), %rax
	cmpq	-24(%rbp), %rax
	jb	.L313
.LBE9:
.LBB10:
	.loc 4 418 0
	movq	-96(%rbp), %rax
	movl	-52(%rbp), %edx
	movslq	%edx, %rdx
	salq	$7, %rdx
	addq	%rdx, %rax
	movq	%rax, -16(%rbp)
	movl	-52(%rbp), %eax
	cltq
	salq	$8, %rax
	addq	-96(%rbp), %rax
	movq	%rax, -8(%rbp)
	jmp	.L314
.L315:
	addq	$64, -16(%rbp)
.L314:
	movq	-16(%rbp), %rax
	cmpq	-8(%rbp), %rax
	jb	.L315
.LBE10:
	.loc 4 419 0
	movl	$0, -56(%rbp)
	jmp	.L316
.L317:
	.loc 4 420 0
	movq	-200(%rbp), %rdx
	movq	-72(%rbp), %rax
	movl	(%rax), %eax
	cltq
	salq	$5, %rax
	leaq	(%rdx,%rax), %rax
	movq	%rax, -104(%rbp)
	addq	$4, -72(%rbp)
	.loc 4 421 0
	movq	-104(%rbp), %rax
	movq	(%rax), %rax
	movq	%rax, -136(%rbp)
	movq	-104(%rbp), %rax
	addq	$8, %rax
	movq	(%rax), %rax
	movq	%rax, -128(%rbp)
	movq	-104(%rbp), %rax
	addq	$16, %rax
	movq	(%rax), %rax
	movq	%rax, -120(%rbp)
	movq	-104(%rbp), %rax
	addq	$24, %rax
	movq	(%rax), %rax
	movq	%rax, -112(%rbp)
	.loc 4 422 0
	movq	-96(%rbp), %rax
	vmovsd	(%rax), %xmm0
	vmulsd	-136(%rbp), %xmm0, %xmm1
	movq	-96(%rbp), %rax
	addq	$32, %rax
	vmovsd	(%rax), %xmm0
	vmulsd	-128(%rbp), %xmm0, %xmm0
	vaddsd	%xmm0, %xmm1, %xmm1
	movq	-96(%rbp), %rax
	addq	$64, %rax
	vmovsd	(%rax), %xmm0
	vmulsd	-120(%rbp), %xmm0, %xmm0
	vaddsd	%xmm0, %xmm1, %xmm1
	movq	-96(%rbp), %rax
	addq	$96, %rax
	vmovsd	(%rax), %xmm0
	vmulsd	-112(%rbp), %xmm0, %xmm0
	vaddsd	%xmm0, %xmm1, %xmm0
	vmovsd	-168(%rbp), %xmm1
	vaddsd	%xmm0, %xmm1, %xmm0
	vmovsd	%xmm0, -168(%rbp)
	.loc 4 423 0
	movq	-96(%rbp), %rax
	addq	$8, %rax
	vmovsd	(%rax), %xmm0
	vmulsd	-136(%rbp), %xmm0, %xmm1
	movq	-96(%rbp), %rax
	addq	$40, %rax
	vmovsd	(%rax), %xmm0
	vmulsd	-128(%rbp), %xmm0, %xmm0
	vaddsd	%xmm0, %xmm1, %xmm1
	movq	-96(%rbp), %rax
	addq	$72, %rax
	vmovsd	(%rax), %xmm0
	vmulsd	-120(%rbp), %xmm0, %xmm0
	vaddsd	%xmm0, %xmm1, %xmm1
	movq	-96(%rbp), %rax
	addq	$104, %rax
	vmovsd	(%rax), %xmm0
	vmulsd	-112(%rbp), %xmm0, %xmm0
	vaddsd	%xmm0, %xmm1, %xmm0
	vmovsd	-160(%rbp), %xmm1
	vaddsd	%xmm0, %xmm1, %xmm0
	vmovsd	%xmm0, -160(%rbp)
	.loc 4 424 0
	movq	-96(%rbp), %rax
	addq	$16, %rax
	vmovsd	(%rax), %xmm0
	vmulsd	-136(%rbp), %xmm0, %xmm1
	movq	-96(%rbp), %rax
	addq	$48, %rax
	vmovsd	(%rax), %xmm0
	vmulsd	-128(%rbp), %xmm0, %xmm0
	vaddsd	%xmm0, %xmm1, %xmm1
	movq	-96(%rbp), %rax
	addq	$80, %rax
	vmovsd	(%rax), %xmm0
	vmulsd	-120(%rbp), %xmm0, %xmm0
	vaddsd	%xmm0, %xmm1, %xmm1
	movq	-96(%rbp), %rax
	addq	$112, %rax
	vmovsd	(%rax), %xmm0
	vmulsd	-112(%rbp), %xmm0, %xmm0
	vaddsd	%xmm0, %xmm1, %xmm0
	vmovsd	-152(%rbp), %xmm1
	vaddsd	%xmm0, %xmm1, %xmm0
	vmovsd	%xmm0, -152(%rbp)
	.loc 4 425 0
	movq	-96(%rbp), %rax
	addq	$24, %rax
	vmovsd	(%rax), %xmm0
	vmulsd	-136(%rbp), %xmm0, %xmm1
	movq	-96(%rbp), %rax
	addq	$56, %rax
	vmovsd	(%rax), %xmm0
	vmulsd	-128(%rbp), %xmm0, %xmm0
	vaddsd	%xmm0, %xmm1, %xmm1
	movq	-96(%rbp), %rax
	addq	$88, %rax
	vmovsd	(%rax), %xmm0
	vmulsd	-120(%rbp), %xmm0, %xmm0
	vaddsd	%xmm0, %xmm1, %xmm1
	movq	-96(%rbp), %rax
	addq	$120, %rax
	vmovsd	(%rax), %xmm0
	vmulsd	-112(%rbp), %xmm0, %xmm0
	vaddsd	%xmm0, %xmm1, %xmm0
	vmovsd	-144(%rbp), %xmm1
	vaddsd	%xmm0, %xmm1, %xmm0
	vmovsd	%xmm0, -144(%rbp)
	.loc 4 426 0
	subq	$-128, -96(%rbp)
	.loc 4 419 0
	addl	$1, -56(%rbp)
.L316:
	movl	-56(%rbp), %eax
	cmpl	-52(%rbp), %eax
	jl	.L317
	.loc 4 428 0
	cmpl	$0, -36(%rbp)
	je	.L318
	movq	-192(%rbp), %rdx
	movl	-76(%rbp), %eax
	cltq
	salq	$2, %rax
	addq	-48(%rbp), %rax
	movl	(%rax), %eax
	cltq
	salq	$5, %rax
	leaq	(%rdx,%rax), %rax
	movq	%rax, -176(%rbp)
.L318:
	.loc 4 429 0
	movq	-176(%rbp), %rax
	movq	-168(%rbp), %rdx
	movq	%rdx, (%rax)
	movq	-176(%rbp), %rax
	leaq	8(%rax), %rdx
	movq	-160(%rbp), %rax
	movq	%rax, (%rdx)
	movq	-176(%rbp), %rax
	leaq	16(%rax), %rdx
	movq	-152(%rbp), %rax
	movq	%rax, (%rdx)
	movq	-176(%rbp), %rax
	leaq	24(%rax), %rdx
	movq	-144(%rbp), %rax
	movq	%rax, (%rdx)
	.loc 4 430 0
	cmpl	$0, -36(%rbp)
	jne	.L319
	addq	$32, -176(%rbp)
.L319:
	.loc 4 413 0
	addl	$1, -76(%rbp)
.L311:
	movl	-76(%rbp), %eax
	cmpl	-80(%rbp), %eax
	jl	.L320
	.loc 4 432 0
	leaq	-200(%rbp), %rdx
	movq	-224(%rbp), %rax
	movq	%rdx, %rsi
	movq	%rax, %rdi
	call	VecRestoreArrayRead
	movl	%eax, -84(%rbp)
	cmpl	$0, -84(%rbp)
	setne	%al
	movzbl	%al, %eax
	testq	%rax, %rax
	je	.L321
	movl	-84(%rbp), %eax
	movq	$.LC5, 8(%rsp)
	movl	$1, (%rsp)
	movl	%eax, %r9d
	movl	$.LC3, %r8d
	movl	$.LC6, %ecx
	movl	$__func__.26011, %edx
	movl	$432, %esi
	movl	$1140850689, %edi
	movl	$0, %eax
	call	PetscError
	jmp	.L307
.L321:
	.loc 4 433 0
	leaq	-192(%rbp), %rdx
	movq	-232(%rbp), %rax
	movq	%rdx, %rsi
	movq	%rax, %rdi
	call	VecRestoreArray
	movl	%eax, -84(%rbp)
	cmpl	$0, -84(%rbp)
	setne	%al
	movzbl	%al, %eax
	testq	%rax, %rax
	je	.L322
	movl	-84(%rbp), %eax
	movq	$.LC5, 8(%rsp)
	movl	$1, (%rsp)
	movl	%eax, %r9d
	movl	$.LC3, %r8d
	movl	$.LC6, %ecx
	movl	$__func__.26011, %edx
	movl	$433, %esi
	movl	$1140850689, %edi
	movl	$0, %eax
	call	PetscError
	jmp	.L307
.L322:
	.loc 4 434 0
	movq	-184(%rbp), %rax
	movl	128(%rax), %eax
	vcvtsi2sd	%eax, %xmm0, %xmm0
	vmovsd	.LC18(%rip), %xmm1
	vmulsd	%xmm1, %xmm0, %xmm1
	vcvtsi2sd	-40(%rbp), %xmm0, %xmm0
	vmovsd	.LC19(%rip), %xmm2
	vmulsd	%xmm2, %xmm0, %xmm0
	vaddsd	%xmm0, %xmm1, %xmm0
	vmovsd	_TotalFlops(%rip), %xmm1
	vaddsd	%xmm1, %xmm0, %xmm0
	vmovsd	%xmm0, _TotalFlops(%rip)
	movl	$0, -84(%rbp)
	cmpl	$0, -84(%rbp)
	setne	%al
	movzbl	%al, %eax
	testq	%rax, %rax
	je	.L323
	movl	-84(%rbp), %eax
	movq	$.LC5, 8(%rsp)
	movl	$1, (%rsp)
	movl	%eax, %r9d
	movl	$.LC3, %r8d
	movl	$.LC6, %ecx
	movl	$__func__.26011, %edx
	movl	$434, %esi
	movl	$1140850689, %edi
	movl	$0, %eax
	call	PetscError
	jmp	.L307
.L323:
	.loc 4 435 0
	movq	petscstack(%rip), %rax
	testq	%rax, %rax
	je	.L324
	movq	petscstack(%rip), %rax
	movl	1792(%rax), %eax
	testl	%eax, %eax
	jle	.L324
	movq	petscstack(%rip), %rax
	movl	1792(%rax), %edx
	subl	$1, %edx
	movl	%edx, 1792(%rax)
	movq	petscstack(%rip), %rax
	movq	petscstack(%rip), %rdx
	movl	1792(%rdx), %edx
	movslq	%edx, %rdx
	movq	$0, (%rax,%rdx,8)
	movq	petscstack(%rip), %rax
	movq	petscstack(%rip), %rdx
	movl	1792(%rdx), %edx
	movslq	%edx, %rdx
	addq	$64, %rdx
	movq	$0, (%rax,%rdx,8)
	movq	petscstack(%rip), %rax
	movq	petscstack(%rip), %rdx
	movl	1792(%rdx), %edx
	movslq	%edx, %rdx
	subq	$-128, %rdx
	movq	$0, (%rax,%rdx,8)
	movq	petscstack(%rip), %rax
	movq	petscstack(%rip), %rdx
	movl	1792(%rdx), %edx
	movslq	%edx, %rdx
	addq	$384, %rdx
	movl	$0, (%rax,%rdx,4)
.L324:
	movl	$0, %eax
.L307:
	.loc 4 436 0
	leave
	.cfi_def_cfa 7, 8
	ret
	.cfi_endproc
.LFE69:
	.size	MatMult_SeqBAIJ_4, .-MatMult_SeqBAIJ_4
.globl MatMult_SeqBAIJ_5
	.type	MatMult_SeqBAIJ_5, @function
MatMult_SeqBAIJ_5:
.LFB70:
	.loc 4 441 0
	.cfi_startproc
	pushq	%rbp
	.cfi_def_cfa_offset 16
	.cfi_offset 6, -16
	movq	%rsp, %rbp
	.cfi_def_cfa_register 6
	subq	$272, %rsp
	movq	%rdi, -232(%rbp)
	movq	%rsi, -240(%rbp)
	movq	%rdx, -248(%rbp)
	.loc 4 442 0
	movq	-232(%rbp), %rax
	movq	472(%rax), %rax
	movq	%rax, -200(%rbp)
	.loc 4 443 0
	movq	$0, -112(%rbp)
	.loc 4 447 0
	movq	$0, -64(%rbp)
	.loc 4 448 0
	movl	$0, -40(%rbp)
	.loc 4 449 0
	movq	-200(%rbp), %rax
	movl	100(%rax), %eax
	movl	%eax, -36(%rbp)
	.loc 4 451 0
	movq	petscstack(%rip), %rax
	testq	%rax, %rax
	je	.L352
	movq	petscstack(%rip), %rax
	movl	1792(%rax), %eax
	cmpl	$63, %eax
	jg	.L353
	movq	petscstack(%rip), %rax
	movq	petscstack(%rip), %rdx
	movl	1792(%rdx), %edx
	movslq	%edx, %rdx
	movq	$__func__.26244, (%rax,%rdx,8)
	movq	petscstack(%rip), %rax
	movq	petscstack(%rip), %rdx
	movl	1792(%rdx), %edx
	movslq	%edx, %rdx
	addq	$64, %rdx
	movq	$.LC6, (%rax,%rdx,8)
	movq	petscstack(%rip), %rax
	movq	petscstack(%rip), %rdx
	movl	1792(%rdx), %edx
	movslq	%edx, %rdx
	subq	$-128, %rdx
	movq	$.LC3, (%rax,%rdx,8)
	movq	petscstack(%rip), %rax
	movq	petscstack(%rip), %rdx
	movl	1792(%rdx), %edx
	movslq	%edx, %rdx
	addq	$384, %rdx
	movl	$451, (%rax,%rdx,4)
	movq	petscstack(%rip), %rax
	movl	1792(%rax), %edx
	addl	$1, %edx
	movl	%edx, 1792(%rax)
	jmp	.L351
.L352:
	nop
	jmp	.L351
.L353:
	nop
.L351:
	.loc 4 452 0
	leaq	-216(%rbp), %rdx
	movq	-240(%rbp), %rax
	movq	%rdx, %rsi
	movq	%rax, %rdi
	call	VecGetArrayRead
	movl	%eax, -84(%rbp)
	cmpl	$0, -84(%rbp)
	setne	%al
	movzbl	%al, %eax
	testq	%rax, %rax
	je	.L331
	movl	-84(%rbp), %eax
	movq	$.LC5, 8(%rsp)
	movl	$1, (%rsp)
	movl	%eax, %r9d
	movl	$.LC3, %r8d
	movl	$.LC6, %ecx
	movl	$__func__.26244, %edx
	movl	$452, %esi
	movl	$1140850689, %edi
	movl	$0, %eax
	call	PetscError
	jmp	.L332
.L331:
	.loc 4 453 0
	leaq	-208(%rbp), %rdx
	movq	-248(%rbp), %rax
	movq	%rdx, %rsi
	movq	%rax, %rdi
	call	VecGetArray
	movl	%eax, -84(%rbp)
	cmpl	$0, -84(%rbp)
	setne	%al
	movzbl	%al, %eax
	testq	%rax, %rax
	je	.L333
	movl	-84(%rbp), %eax
	movq	$.LC5, 8(%rsp)
	movl	$1, (%rsp)
	movl	%eax, %r9d
	movl	$.LC3, %r8d
	movl	$.LC6, %ecx
	movl	$__func__.26244, %edx
	movl	$453, %esi
	movl	$1140850689, %edi
	movl	$0, %eax
	call	PetscError
	jmp	.L332
.L333:
	.loc 4 455 0
	movq	-200(%rbp), %rax
	movq	144(%rax), %rax
	movq	%rax, -80(%rbp)
	.loc 4 456 0
	movq	-200(%rbp), %rax
	movq	168(%rax), %rax
	movq	%rax, -96(%rbp)
	.loc 4 457 0
	cmpl	$0, -36(%rbp)
	je	.L334
	.loc 4 458 0
	movq	-200(%rbp), %rax
	movl	104(%rax), %eax
	movl	%eax, -56(%rbp)
	.loc 4 459 0
	movq	-200(%rbp), %rax
	movq	112(%rax), %rax
	movq	%rax, -72(%rbp)
	.loc 4 460 0
	movq	-200(%rbp), %rax
	movq	120(%rax), %rax
	movq	%rax, -64(%rbp)
	jmp	.L335
.L334:
	.loc 4 462 0
	movq	-200(%rbp), %rax
	movl	228(%rax), %eax
	movl	%eax, -56(%rbp)
	.loc 4 463 0
	movq	-200(%rbp), %rax
	movq	136(%rax), %rax
	movq	%rax, -72(%rbp)
	.loc 4 464 0
	movq	-208(%rbp), %rax
	movq	%rax, -112(%rbp)
.L335:
	.loc 4 467 0
	movl	$0, -52(%rbp)
	jmp	.L336
.L345:
	.loc 4 468 0
	movq	-72(%rbp), %rax
	addq	$4, %rax
	movl	(%rax), %edx
	movq	-72(%rbp), %rax
	movl	(%rax), %eax
	movl	%edx, %ecx
	subl	%eax, %ecx
	movl	%ecx, %eax
	movl	%eax, -44(%rbp)
	addq	$4, -72(%rbp)
	.loc 4 469 0
	movl	$0, %eax
	movq	%rax, -192(%rbp)
	movl	$0, %eax
	movq	%rax, -184(%rbp)
	movl	$0, %eax
	movq	%rax, -176(%rbp)
	movl	$0, %eax
	movq	%rax, -168(%rbp)
	movl	$0, %eax
	movq	%rax, -160(%rbp)
	.loc 4 470 0
	cmpl	$0, -44(%rbp)
	setg	%al
	movzbl	%al, %eax
	addl	%eax, -40(%rbp)
.LBB11:
	.loc 4 471 0
	movq	-80(%rbp), %rax
	movl	-44(%rbp), %edx
	movslq	%edx, %rdx
	salq	$2, %rdx
	addq	%rdx, %rax
	movq	%rax, -32(%rbp)
	movl	-44(%rbp), %eax
	cltq
	salq	$3, %rax
	addq	-80(%rbp), %rax
	movq	%rax, -24(%rbp)
	jmp	.L337
.L338:
	addq	$64, -32(%rbp)
.L337:
	movq	-32(%rbp), %rax
	cmpq	-24(%rbp), %rax
	jb	.L338
.LBE11:
.LBB12:
	.loc 4 472 0
	movq	-96(%rbp), %rcx
	movl	-44(%rbp), %eax
	movslq	%eax, %rdx
	movq	%rdx, %rax
	salq	$2, %rax
	addq	%rdx, %rax
	leaq	0(,%rax,4), %rdx
	addq	%rdx, %rax
	salq	$3, %rax
	leaq	(%rcx,%rax), %rax
	movq	%rax, -16(%rbp)
	movl	-44(%rbp), %eax
	movslq	%eax, %rdx
	movq	%rdx, %rax
	salq	$2, %rax
	addq	%rdx, %rax
	leaq	0(,%rax,4), %rdx
	addq	%rdx, %rax
	salq	$4, %rax
	addq	-96(%rbp), %rax
	movq	%rax, -8(%rbp)
	jmp	.L339
.L340:
	addq	$64, -16(%rbp)
.L339:
	movq	-16(%rbp), %rax
	cmpq	-8(%rbp), %rax
	jb	.L340
.LBE12:
	.loc 4 473 0
	movl	$0, -48(%rbp)
	jmp	.L341
.L342:
	.loc 4 474 0
	movq	-216(%rbp), %rcx
	movq	-80(%rbp), %rax
	movl	(%rax), %eax
	movslq	%eax, %rdx
	movq	%rdx, %rax
	salq	$2, %rax
	addq	%rdx, %rax
	salq	$3, %rax
	leaq	(%rcx,%rax), %rax
	movq	%rax, -104(%rbp)
	addq	$4, -80(%rbp)
	.loc 4 475 0
	movq	-104(%rbp), %rax
	movq	(%rax), %rax
	movq	%rax, -152(%rbp)
	movq	-104(%rbp), %rax
	addq	$8, %rax
	movq	(%rax), %rax
	movq	%rax, -144(%rbp)
	movq	-104(%rbp), %rax
	addq	$16, %rax
	movq	(%rax), %rax
	movq	%rax, -136(%rbp)
	movq	-104(%rbp), %rax
	addq	$24, %rax
	movq	(%rax), %rax
	movq	%rax, -128(%rbp)
	movq	-104(%rbp), %rax
	addq	$32, %rax
	movq	(%rax), %rax
	movq	%rax, -120(%rbp)
	.loc 4 476 0
	movq	-96(%rbp), %rax
	vmovsd	(%rax), %xmm0
	vmulsd	-152(%rbp), %xmm0, %xmm1
	movq	-96(%rbp), %rax
	addq	$40, %rax
	vmovsd	(%rax), %xmm0
	vmulsd	-144(%rbp), %xmm0, %xmm0
	vaddsd	%xmm0, %xmm1, %xmm1
	movq	-96(%rbp), %rax
	addq	$80, %rax
	vmovsd	(%rax), %xmm0
	vmulsd	-136(%rbp), %xmm0, %xmm0
	vaddsd	%xmm0, %xmm1, %xmm1
	movq	-96(%rbp), %rax
	addq	$120, %rax
	vmovsd	(%rax), %xmm0
	vmulsd	-128(%rbp), %xmm0, %xmm0
	vaddsd	%xmm0, %xmm1, %xmm1
	movq	-96(%rbp), %rax
	addq	$160, %rax
	vmovsd	(%rax), %xmm0
	vmulsd	-120(%rbp), %xmm0, %xmm0
	vaddsd	%xmm0, %xmm1, %xmm0
	vmovsd	-192(%rbp), %xmm1
	vaddsd	%xmm0, %xmm1, %xmm0
	vmovsd	%xmm0, -192(%rbp)
	.loc 4 477 0
	movq	-96(%rbp), %rax
	addq	$8, %rax
	vmovsd	(%rax), %xmm0
	vmulsd	-152(%rbp), %xmm0, %xmm1
	movq	-96(%rbp), %rax
	addq	$48, %rax
	vmovsd	(%rax), %xmm0
	vmulsd	-144(%rbp), %xmm0, %xmm0
	vaddsd	%xmm0, %xmm1, %xmm1
	movq	-96(%rbp), %rax
	addq	$88, %rax
	vmovsd	(%rax), %xmm0
	vmulsd	-136(%rbp), %xmm0, %xmm0
	vaddsd	%xmm0, %xmm1, %xmm1
	movq	-96(%rbp), %rax
	subq	$-128, %rax
	vmovsd	(%rax), %xmm0
	vmulsd	-128(%rbp), %xmm0, %xmm0
	vaddsd	%xmm0, %xmm1, %xmm1
	movq	-96(%rbp), %rax
	addq	$168, %rax
	vmovsd	(%rax), %xmm0
	vmulsd	-120(%rbp), %xmm0, %xmm0
	vaddsd	%xmm0, %xmm1, %xmm0
	vmovsd	-184(%rbp), %xmm1
	vaddsd	%xmm0, %xmm1, %xmm0
	vmovsd	%xmm0, -184(%rbp)
	.loc 4 478 0
	movq	-96(%rbp), %rax
	addq	$16, %rax
	vmovsd	(%rax), %xmm0
	vmulsd	-152(%rbp), %xmm0, %xmm1
	movq	-96(%rbp), %rax
	addq	$56, %rax
	vmovsd	(%rax), %xmm0
	vmulsd	-144(%rbp), %xmm0, %xmm0
	vaddsd	%xmm0, %xmm1, %xmm1
	movq	-96(%rbp), %rax
	addq	$96, %rax
	vmovsd	(%rax), %xmm0
	vmulsd	-136(%rbp), %xmm0, %xmm0
	vaddsd	%xmm0, %xmm1, %xmm1
	movq	-96(%rbp), %rax
	addq	$136, %rax
	vmovsd	(%rax), %xmm0
	vmulsd	-128(%rbp), %xmm0, %xmm0
	vaddsd	%xmm0, %xmm1, %xmm1
	movq	-96(%rbp), %rax
	addq	$176, %rax
	vmovsd	(%rax), %xmm0
	vmulsd	-120(%rbp), %xmm0, %xmm0
	vaddsd	%xmm0, %xmm1, %xmm0
	vmovsd	-176(%rbp), %xmm1
	vaddsd	%xmm0, %xmm1, %xmm0
	vmovsd	%xmm0, -176(%rbp)
	.loc 4 479 0
	movq	-96(%rbp), %rax
	addq	$24, %rax
	vmovsd	(%rax), %xmm0
	vmulsd	-152(%rbp), %xmm0, %xmm1
	movq	-96(%rbp), %rax
	addq	$64, %rax
	vmovsd	(%rax), %xmm0
	vmulsd	-144(%rbp), %xmm0, %xmm0
	vaddsd	%xmm0, %xmm1, %xmm1
	movq	-96(%rbp), %rax
	addq	$104, %rax
	vmovsd	(%rax), %xmm0
	vmulsd	-136(%rbp), %xmm0, %xmm0
	vaddsd	%xmm0, %xmm1, %xmm1
	movq	-96(%rbp), %rax
	addq	$144, %rax
	vmovsd	(%rax), %xmm0
	vmulsd	-128(%rbp), %xmm0, %xmm0
	vaddsd	%xmm0, %xmm1, %xmm1
	movq	-96(%rbp), %rax
	addq	$184, %rax
	vmovsd	(%rax), %xmm0
	vmulsd	-120(%rbp), %xmm0, %xmm0
	vaddsd	%xmm0, %xmm1, %xmm0
	vmovsd	-168(%rbp), %xmm1
	vaddsd	%xmm0, %xmm1, %xmm0
	vmovsd	%xmm0, -168(%rbp)
	.loc 4 480 0
	movq	-96(%rbp), %rax
	addq	$32, %rax
	vmovsd	(%rax), %xmm0
	vmulsd	-152(%rbp), %xmm0, %xmm1
	movq	-96(%rbp), %rax
	addq	$72, %rax
	vmovsd	(%rax), %xmm0
	vmulsd	-144(%rbp), %xmm0, %xmm0
	vaddsd	%xmm0, %xmm1, %xmm1
	movq	-96(%rbp), %rax
	addq	$112, %rax
	vmovsd	(%rax), %xmm0
	vmulsd	-136(%rbp), %xmm0, %xmm0
	vaddsd	%xmm0, %xmm1, %xmm1
	movq	-96(%rbp), %rax
	addq	$152, %rax
	vmovsd	(%rax), %xmm0
	vmulsd	-128(%rbp), %xmm0, %xmm0
	vaddsd	%xmm0, %xmm1, %xmm1
	movq	-96(%rbp), %rax
	addq	$192, %rax
	vmovsd	(%rax), %xmm0
	vmulsd	-120(%rbp), %xmm0, %xmm0
	vaddsd	%xmm0, %xmm1, %xmm0
	vmovsd	-160(%rbp), %xmm1
	vaddsd	%xmm0, %xmm1, %xmm0
	vmovsd	%xmm0, -160(%rbp)
	.loc 4 481 0
	addq	$200, -96(%rbp)
	.loc 4 473 0
	addl	$1, -48(%rbp)
.L341:
	movl	-48(%rbp), %eax
	cmpl	-44(%rbp), %eax
	jl	.L342
	.loc 4 483 0
	cmpl	$0, -36(%rbp)
	je	.L343
	movq	-208(%rbp), %rcx
	movl	-52(%rbp), %eax
	cltq
	salq	$2, %rax
	addq	-64(%rbp), %rax
	movl	(%rax), %eax
	movslq	%eax, %rdx
	movq	%rdx, %rax
	salq	$2, %rax
	addq	%rdx, %rax
	salq	$3, %rax
	leaq	(%rcx,%rax), %rax
	movq	%rax, -112(%rbp)
.L343:
	.loc 4 484 0
	movq	-112(%rbp), %rax
	movq	-192(%rbp), %rdx
	movq	%rdx, (%rax)
	movq	-112(%rbp), %rax
	leaq	8(%rax), %rdx
	movq	-184(%rbp), %rax
	movq	%rax, (%rdx)
	movq	-112(%rbp), %rax
	leaq	16(%rax), %rdx
	movq	-176(%rbp), %rax
	movq	%rax, (%rdx)
	movq	-112(%rbp), %rax
	leaq	24(%rax), %rdx
	movq	-168(%rbp), %rax
	movq	%rax, (%rdx)
	movq	-112(%rbp), %rax
	leaq	32(%rax), %rdx
	movq	-160(%rbp), %rax
	movq	%rax, (%rdx)
	.loc 4 485 0
	cmpl	$0, -36(%rbp)
	jne	.L344
	addq	$40, -112(%rbp)
.L344:
	.loc 4 467 0
	addl	$1, -52(%rbp)
.L336:
	movl	-52(%rbp), %eax
	cmpl	-56(%rbp), %eax
	jl	.L345
	.loc 4 487 0
	leaq	-216(%rbp), %rdx
	movq	-240(%rbp), %rax
	movq	%rdx, %rsi
	movq	%rax, %rdi
	call	VecRestoreArrayRead
	movl	%eax, -84(%rbp)
	cmpl	$0, -84(%rbp)
	setne	%al
	movzbl	%al, %eax
	testq	%rax, %rax
	je	.L346
	movl	-84(%rbp), %eax
	movq	$.LC5, 8(%rsp)
	movl	$1, (%rsp)
	movl	%eax, %r9d
	movl	$.LC3, %r8d
	movl	$.LC6, %ecx
	movl	$__func__.26244, %edx
	movl	$487, %esi
	movl	$1140850689, %edi
	movl	$0, %eax
	call	PetscError
	jmp	.L332
.L346:
	.loc 4 488 0
	leaq	-208(%rbp), %rdx
	movq	-248(%rbp), %rax
	movq	%rdx, %rsi
	movq	%rax, %rdi
	call	VecRestoreArray
	movl	%eax, -84(%rbp)
	cmpl	$0, -84(%rbp)
	setne	%al
	movzbl	%al, %eax
	testq	%rax, %rax
	je	.L347
	movl	-84(%rbp), %eax
	movq	$.LC5, 8(%rsp)
	movl	$1, (%rsp)
	movl	%eax, %r9d
	movl	$.LC3, %r8d
	movl	$.LC6, %ecx
	movl	$__func__.26244, %edx
	movl	$488, %esi
	movl	$1140850689, %edi
	movl	$0, %eax
	call	PetscError
	jmp	.L332
.L347:
	.loc 4 489 0
	movq	-200(%rbp), %rax
	movl	128(%rax), %eax
	vcvtsi2sd	%eax, %xmm0, %xmm0
	vmovsd	.LC20(%rip), %xmm1
	vmulsd	%xmm1, %xmm0, %xmm1
	vcvtsi2sd	-40(%rbp), %xmm0, %xmm0
	vmovsd	.LC21(%rip), %xmm2
	vmulsd	%xmm2, %xmm0, %xmm0
	vaddsd	%xmm0, %xmm1, %xmm0
	vmovsd	_TotalFlops(%rip), %xmm1
	vaddsd	%xmm1, %xmm0, %xmm0
	vmovsd	%xmm0, _TotalFlops(%rip)
	movl	$0, -84(%rbp)
	cmpl	$0, -84(%rbp)
	setne	%al
	movzbl	%al, %eax
	testq	%rax, %rax
	je	.L348
	movl	-84(%rbp), %eax
	movq	$.LC5, 8(%rsp)
	movl	$1, (%rsp)
	movl	%eax, %r9d
	movl	$.LC3, %r8d
	movl	$.LC6, %ecx
	movl	$__func__.26244, %edx
	movl	$489, %esi
	movl	$1140850689, %edi
	movl	$0, %eax
	call	PetscError
	jmp	.L332
.L348:
	.loc 4 490 0
	movq	petscstack(%rip), %rax
	testq	%rax, %rax
	je	.L349
	movq	petscstack(%rip), %rax
	movl	1792(%rax), %eax
	testl	%eax, %eax
	jle	.L349
	movq	petscstack(%rip), %rax
	movl	1792(%rax), %edx
	subl	$1, %edx
	movl	%edx, 1792(%rax)
	movq	petscstack(%rip), %rax
	movq	petscstack(%rip), %rdx
	movl	1792(%rdx), %edx
	movslq	%edx, %rdx
	movq	$0, (%rax,%rdx,8)
	movq	petscstack(%rip), %rax
	movq	petscstack(%rip), %rdx
	movl	1792(%rdx), %edx
	movslq	%edx, %rdx
	addq	$64, %rdx
	movq	$0, (%rax,%rdx,8)
	movq	petscstack(%rip), %rax
	movq	petscstack(%rip), %rdx
	movl	1792(%rdx), %edx
	movslq	%edx, %rdx
	subq	$-128, %rdx
	movq	$0, (%rax,%rdx,8)
	movq	petscstack(%rip), %rax
	movq	petscstack(%rip), %rdx
	movl	1792(%rdx), %edx
	movslq	%edx, %rdx
	addq	$384, %rdx
	movl	$0, (%rax,%rdx,4)
.L349:
	movl	$0, %eax
.L332:
	.loc 4 491 0
	leave
	.cfi_def_cfa 7, 8
	ret
	.cfi_endproc
.LFE70:
	.size	MatMult_SeqBAIJ_5, .-MatMult_SeqBAIJ_5
.globl MatMult_SeqBAIJ_6
	.type	MatMult_SeqBAIJ_6, @function
MatMult_SeqBAIJ_6:
.LFB71:
	.loc 4 497 0
	.cfi_startproc
	pushq	%rbp
	.cfi_def_cfa_offset 16
	.cfi_offset 6, -16
	movq	%rsp, %rbp
	.cfi_def_cfa_register 6
	subq	$288, %rsp
	movq	%rdi, -248(%rbp)
	movq	%rsi, -256(%rbp)
	movq	%rdx, -264(%rbp)
	.loc 4 498 0
	movq	-248(%rbp), %rax
	movq	472(%rax), %rax
	movq	%rax, -216(%rbp)
	.loc 4 499 0
	movq	$0, -208(%rbp)
	.loc 4 504 0
	movq	-216(%rbp), %rax
	movl	228(%rax), %eax
	movl	%eax, -80(%rbp)
	movq	$0, -48(%rbp)
	movl	$0, -40(%rbp)
	.loc 4 505 0
	movq	-216(%rbp), %rax
	movl	100(%rax), %eax
	movl	%eax, -36(%rbp)
	.loc 4 507 0
	movq	petscstack(%rip), %rax
	testq	%rax, %rax
	je	.L377
	movq	petscstack(%rip), %rax
	movl	1792(%rax), %eax
	cmpl	$63, %eax
	jg	.L378
	movq	petscstack(%rip), %rax
	movq	petscstack(%rip), %rdx
	movl	1792(%rdx), %edx
	movslq	%edx, %rdx
	movq	$__func__.26516, (%rax,%rdx,8)
	movq	petscstack(%rip), %rax
	movq	petscstack(%rip), %rdx
	movl	1792(%rdx), %edx
	movslq	%edx, %rdx
	addq	$64, %rdx
	movq	$.LC6, (%rax,%rdx,8)
	movq	petscstack(%rip), %rax
	movq	petscstack(%rip), %rdx
	movl	1792(%rdx), %edx
	movslq	%edx, %rdx
	subq	$-128, %rdx
	movq	$.LC3, (%rax,%rdx,8)
	movq	petscstack(%rip), %rax
	movq	petscstack(%rip), %rdx
	movl	1792(%rdx), %edx
	movslq	%edx, %rdx
	addq	$384, %rdx
	movl	$507, (%rax,%rdx,4)
	movq	petscstack(%rip), %rax
	movl	1792(%rax), %edx
	addl	$1, %edx
	movl	%edx, 1792(%rax)
	jmp	.L376
.L377:
	nop
	jmp	.L376
.L378:
	nop
.L376:
	.loc 4 508 0
	leaq	-224(%rbp), %rdx
	movq	-256(%rbp), %rax
	movq	%rdx, %rsi
	movq	%rax, %rdi
	call	VecGetArrayRead
	movl	%eax, -84(%rbp)
	cmpl	$0, -84(%rbp)
	setne	%al
	movzbl	%al, %eax
	testq	%rax, %rax
	je	.L356
	movl	-84(%rbp), %eax
	movq	$.LC5, 8(%rsp)
	movl	$1, (%rsp)
	movl	%eax, %r9d
	movl	$.LC3, %r8d
	movl	$.LC6, %ecx
	movl	$__func__.26516, %edx
	movl	$508, %esi
	movl	$1140850689, %edi
	movl	$0, %eax
	call	PetscError
	jmp	.L357
.L356:
	.loc 4 509 0
	leaq	-232(%rbp), %rdx
	movq	-264(%rbp), %rax
	movq	%rdx, %rsi
	movq	%rax, %rdi
	call	VecGetArray
	movl	%eax, -84(%rbp)
	cmpl	$0, -84(%rbp)
	setne	%al
	movzbl	%al, %eax
	testq	%rax, %rax
	je	.L358
	movl	-84(%rbp), %eax
	movq	$.LC5, 8(%rsp)
	movl	$1, (%rsp)
	movl	%eax, %r9d
	movl	$.LC3, %r8d
	movl	$.LC6, %ecx
	movl	$__func__.26516, %edx
	movl	$509, %esi
	movl	$1140850689, %edi
	movl	$0, %eax
	call	PetscError
	jmp	.L357
.L358:
	.loc 4 511 0
	movq	-216(%rbp), %rax
	movq	144(%rax), %rax
	movq	%rax, -72(%rbp)
	.loc 4 512 0
	movq	-216(%rbp), %rax
	movq	168(%rax), %rax
	movq	%rax, -96(%rbp)
	.loc 4 513 0
	cmpl	$0, -36(%rbp)
	je	.L359
	.loc 4 514 0
	movq	-216(%rbp), %rax
	movl	104(%rax), %eax
	movl	%eax, -80(%rbp)
	.loc 4 515 0
	movq	-216(%rbp), %rax
	movq	112(%rax), %rax
	movq	%rax, -64(%rbp)
	.loc 4 516 0
	movq	-216(%rbp), %rax
	movq	120(%rax), %rax
	movq	%rax, -48(%rbp)
	jmp	.L360
.L359:
	.loc 4 518 0
	movq	-216(%rbp), %rax
	movl	228(%rax), %eax
	movl	%eax, -80(%rbp)
	.loc 4 519 0
	movq	-216(%rbp), %rax
	movq	136(%rax), %rax
	movq	%rax, -64(%rbp)
	.loc 4 520 0
	movq	-232(%rbp), %rax
	movq	%rax, -208(%rbp)
.L360:
	.loc 4 523 0
	movl	$0, -76(%rbp)
	jmp	.L361
.L370:
	.loc 4 524 0
	movq	-64(%rbp), %rax
	addq	$4, %rax
	movl	(%rax), %edx
	movq	-64(%rbp), %rax
	movl	(%rax), %eax
	movl	%edx, %ecx
	subl	%eax, %ecx
	movl	%ecx, %eax
	movl	%eax, -52(%rbp)
	addq	$4, -64(%rbp)
	.loc 4 525 0
	movl	$0, %eax
	movq	%rax, -200(%rbp)
	movl	$0, %eax
	movq	%rax, -192(%rbp)
	movl	$0, %eax
	movq	%rax, -184(%rbp)
	movl	$0, %eax
	movq	%rax, -176(%rbp)
	movl	$0, %eax
	movq	%rax, -168(%rbp)
	movl	$0, %eax
	movq	%rax, -160(%rbp)
	.loc 4 526 0
	cmpl	$0, -52(%rbp)
	setg	%al
	movzbl	%al, %eax
	addl	%eax, -40(%rbp)
.LBB13:
	.loc 4 527 0
	movq	-72(%rbp), %rax
	movl	-52(%rbp), %edx
	movslq	%edx, %rdx
	salq	$2, %rdx
	addq	%rdx, %rax
	movq	%rax, -32(%rbp)
	movl	-52(%rbp), %eax
	cltq
	salq	$3, %rax
	addq	-72(%rbp), %rax
	movq	%rax, -24(%rbp)
	jmp	.L362
.L363:
	addq	$64, -32(%rbp)
.L362:
	movq	-32(%rbp), %rax
	cmpq	-24(%rbp), %rax
	jb	.L363
.LBE13:
.LBB14:
	.loc 4 528 0
	movq	-96(%rbp), %rcx
	movl	-52(%rbp), %eax
	movslq	%eax, %rdx
	movq	%rdx, %rax
	salq	$3, %rax
	addq	%rdx, %rax
	salq	$5, %rax
	leaq	(%rcx,%rax), %rax
	movq	%rax, -16(%rbp)
	movl	-52(%rbp), %eax
	movslq	%eax, %rdx
	movq	%rdx, %rax
	salq	$3, %rax
	addq	%rdx, %rax
	salq	$6, %rax
	addq	-96(%rbp), %rax
	movq	%rax, -8(%rbp)
	jmp	.L364
.L365:
	addq	$64, -16(%rbp)
.L364:
	movq	-16(%rbp), %rax
	cmpq	-8(%rbp), %rax
	jb	.L365
.LBE14:
	.loc 4 529 0
	movl	$0, -56(%rbp)
	jmp	.L366
.L367:
	.loc 4 530 0
	movq	-224(%rbp), %rcx
	movq	-72(%rbp), %rax
	movl	(%rax), %eax
	movslq	%eax, %rdx
	movq	%rdx, %rax
	addq	%rax, %rax
	addq	%rdx, %rax
	salq	$4, %rax
	leaq	(%rcx,%rax), %rax
	movq	%rax, -152(%rbp)
	addq	$4, -72(%rbp)
	.loc 4 531 0
	movq	-152(%rbp), %rax
	movq	(%rax), %rax
	movq	%rax, -144(%rbp)
	movq	-152(%rbp), %rax
	addq	$8, %rax
	movq	(%rax), %rax
	movq	%rax, -136(%rbp)
	movq	-152(%rbp), %rax
	addq	$16, %rax
	movq	(%rax), %rax
	movq	%rax, -128(%rbp)
	movq	-152(%rbp), %rax
	addq	$24, %rax
	movq	(%rax), %rax
	movq	%rax, -120(%rbp)
	movq	-152(%rbp), %rax
	addq	$32, %rax
	movq	(%rax), %rax
	movq	%rax, -112(%rbp)
	movq	-152(%rbp), %rax
	addq	$40, %rax
	movq	(%rax), %rax
	movq	%rax, -104(%rbp)
	.loc 4 532 0
	movq	-96(%rbp), %rax
	vmovsd	(%rax), %xmm0
	vmulsd	-144(%rbp), %xmm0, %xmm1
	movq	-96(%rbp), %rax
	addq	$48, %rax
	vmovsd	(%rax), %xmm0
	vmulsd	-136(%rbp), %xmm0, %xmm0
	vaddsd	%xmm0, %xmm1, %xmm1
	movq	-96(%rbp), %rax
	addq	$96, %rax
	vmovsd	(%rax), %xmm0
	vmulsd	-128(%rbp), %xmm0, %xmm0
	vaddsd	%xmm0, %xmm1, %xmm1
	movq	-96(%rbp), %rax
	addq	$144, %rax
	vmovsd	(%rax), %xmm0
	vmulsd	-120(%rbp), %xmm0, %xmm0
	vaddsd	%xmm0, %xmm1, %xmm1
	movq	-96(%rbp), %rax
	addq	$192, %rax
	vmovsd	(%rax), %xmm0
	vmulsd	-112(%rbp), %xmm0, %xmm0
	vaddsd	%xmm0, %xmm1, %xmm1
	movq	-96(%rbp), %rax
	addq	$240, %rax
	vmovsd	(%rax), %xmm0
	vmulsd	-104(%rbp), %xmm0, %xmm0
	vaddsd	%xmm0, %xmm1, %xmm0
	vmovsd	-200(%rbp), %xmm1
	vaddsd	%xmm0, %xmm1, %xmm0
	vmovsd	%xmm0, -200(%rbp)
	.loc 4 533 0
	movq	-96(%rbp), %rax
	addq	$8, %rax
	vmovsd	(%rax), %xmm0
	vmulsd	-144(%rbp), %xmm0, %xmm1
	movq	-96(%rbp), %rax
	addq	$56, %rax
	vmovsd	(%rax), %xmm0
	vmulsd	-136(%rbp), %xmm0, %xmm0
	vaddsd	%xmm0, %xmm1, %xmm1
	movq	-96(%rbp), %rax
	addq	$104, %rax
	vmovsd	(%rax), %xmm0
	vmulsd	-128(%rbp), %xmm0, %xmm0
	vaddsd	%xmm0, %xmm1, %xmm1
	movq	-96(%rbp), %rax
	addq	$152, %rax
	vmovsd	(%rax), %xmm0
	vmulsd	-120(%rbp), %xmm0, %xmm0
	vaddsd	%xmm0, %xmm1, %xmm1
	movq	-96(%rbp), %rax
	addq	$200, %rax
	vmovsd	(%rax), %xmm0
	vmulsd	-112(%rbp), %xmm0, %xmm0
	vaddsd	%xmm0, %xmm1, %xmm1
	movq	-96(%rbp), %rax
	addq	$248, %rax
	vmovsd	(%rax), %xmm0
	vmulsd	-104(%rbp), %xmm0, %xmm0
	vaddsd	%xmm0, %xmm1, %xmm0
	vmovsd	-192(%rbp), %xmm1
	vaddsd	%xmm0, %xmm1, %xmm0
	vmovsd	%xmm0, -192(%rbp)
	.loc 4 534 0
	movq	-96(%rbp), %rax
	addq	$16, %rax
	vmovsd	(%rax), %xmm0
	vmulsd	-144(%rbp), %xmm0, %xmm1
	movq	-96(%rbp), %rax
	addq	$64, %rax
	vmovsd	(%rax), %xmm0
	vmulsd	-136(%rbp), %xmm0, %xmm0
	vaddsd	%xmm0, %xmm1, %xmm1
	movq	-96(%rbp), %rax
	addq	$112, %rax
	vmovsd	(%rax), %xmm0
	vmulsd	-128(%rbp), %xmm0, %xmm0
	vaddsd	%xmm0, %xmm1, %xmm1
	movq	-96(%rbp), %rax
	addq	$160, %rax
	vmovsd	(%rax), %xmm0
	vmulsd	-120(%rbp), %xmm0, %xmm0
	vaddsd	%xmm0, %xmm1, %xmm1
	movq	-96(%rbp), %rax
	addq	$208, %rax
	vmovsd	(%rax), %xmm0
	vmulsd	-112(%rbp), %xmm0, %xmm0
	vaddsd	%xmm0, %xmm1, %xmm1
	movq	-96(%rbp), %rax
	addq	$256, %rax
	vmovsd	(%rax), %xmm0
	vmulsd	-104(%rbp), %xmm0, %xmm0
	vaddsd	%xmm0, %xmm1, %xmm0
	vmovsd	-184(%rbp), %xmm1
	vaddsd	%xmm0, %xmm1, %xmm0
	vmovsd	%xmm0, -184(%rbp)
	.loc 4 535 0
	movq	-96(%rbp), %rax
	addq	$24, %rax
	vmovsd	(%rax), %xmm0
	vmulsd	-144(%rbp), %xmm0, %xmm1
	movq	-96(%rbp), %rax
	addq	$72, %rax
	vmovsd	(%rax), %xmm0
	vmulsd	-136(%rbp), %xmm0, %xmm0
	vaddsd	%xmm0, %xmm1, %xmm1
	movq	-96(%rbp), %rax
	addq	$120, %rax
	vmovsd	(%rax), %xmm0
	vmulsd	-128(%rbp), %xmm0, %xmm0
	vaddsd	%xmm0, %xmm1, %xmm1
	movq	-96(%rbp), %rax
	addq	$168, %rax
	vmovsd	(%rax), %xmm0
	vmulsd	-120(%rbp), %xmm0, %xmm0
	vaddsd	%xmm0, %xmm1, %xmm1
	movq	-96(%rbp), %rax
	addq	$216, %rax
	vmovsd	(%rax), %xmm0
	vmulsd	-112(%rbp), %xmm0, %xmm0
	vaddsd	%xmm0, %xmm1, %xmm1
	movq	-96(%rbp), %rax
	addq	$264, %rax
	vmovsd	(%rax), %xmm0
	vmulsd	-104(%rbp), %xmm0, %xmm0
	vaddsd	%xmm0, %xmm1, %xmm0
	vmovsd	-176(%rbp), %xmm1
	vaddsd	%xmm0, %xmm1, %xmm0
	vmovsd	%xmm0, -176(%rbp)
	.loc 4 536 0
	movq	-96(%rbp), %rax
	addq	$32, %rax
	vmovsd	(%rax), %xmm0
	vmulsd	-144(%rbp), %xmm0, %xmm1
	movq	-96(%rbp), %rax
	addq	$80, %rax
	vmovsd	(%rax), %xmm0
	vmulsd	-136(%rbp), %xmm0, %xmm0
	vaddsd	%xmm0, %xmm1, %xmm1
	movq	-96(%rbp), %rax
	subq	$-128, %rax
	vmovsd	(%rax), %xmm0
	vmulsd	-128(%rbp), %xmm0, %xmm0
	vaddsd	%xmm0, %xmm1, %xmm1
	movq	-96(%rbp), %rax
	addq	$176, %rax
	vmovsd	(%rax), %xmm0
	vmulsd	-120(%rbp), %xmm0, %xmm0
	vaddsd	%xmm0, %xmm1, %xmm1
	movq	-96(%rbp), %rax
	addq	$224, %rax
	vmovsd	(%rax), %xmm0
	vmulsd	-112(%rbp), %xmm0, %xmm0
	vaddsd	%xmm0, %xmm1, %xmm1
	movq	-96(%rbp), %rax
	addq	$272, %rax
	vmovsd	(%rax), %xmm0
	vmulsd	-104(%rbp), %xmm0, %xmm0
	vaddsd	%xmm0, %xmm1, %xmm0
	vmovsd	-168(%rbp), %xmm1
	vaddsd	%xmm0, %xmm1, %xmm0
	vmovsd	%xmm0, -168(%rbp)
	.loc 4 537 0
	movq	-96(%rbp), %rax
	addq	$40, %rax
	vmovsd	(%rax), %xmm0
	vmulsd	-144(%rbp), %xmm0, %xmm1
	movq	-96(%rbp), %rax
	addq	$88, %rax
	vmovsd	(%rax), %xmm0
	vmulsd	-136(%rbp), %xmm0, %xmm0
	vaddsd	%xmm0, %xmm1, %xmm1
	movq	-96(%rbp), %rax
	addq	$136, %rax
	vmovsd	(%rax), %xmm0
	vmulsd	-128(%rbp), %xmm0, %xmm0
	vaddsd	%xmm0, %xmm1, %xmm1
	movq	-96(%rbp), %rax
	addq	$184, %rax
	vmovsd	(%rax), %xmm0
	vmulsd	-120(%rbp), %xmm0, %xmm0
	vaddsd	%xmm0, %xmm1, %xmm1
	movq	-96(%rbp), %rax
	addq	$232, %rax
	vmovsd	(%rax), %xmm0
	vmulsd	-112(%rbp), %xmm0, %xmm0
	vaddsd	%xmm0, %xmm1, %xmm1
	movq	-96(%rbp), %rax
	addq	$280, %rax
	vmovsd	(%rax), %xmm0
	vmulsd	-104(%rbp), %xmm0, %xmm0
	vaddsd	%xmm0, %xmm1, %xmm0
	vmovsd	-160(%rbp), %xmm1
	vaddsd	%xmm0, %xmm1, %xmm0
	vmovsd	%xmm0, -160(%rbp)
	.loc 4 538 0
	addq	$288, -96(%rbp)
	.loc 4 529 0
	addl	$1, -56(%rbp)
.L366:
	movl	-56(%rbp), %eax
	cmpl	-52(%rbp), %eax
	jl	.L367
	.loc 4 540 0
	cmpl	$0, -36(%rbp)
	je	.L368
	movq	-232(%rbp), %rcx
	movl	-76(%rbp), %eax
	cltq
	salq	$2, %rax
	addq	-48(%rbp), %rax
	movl	(%rax), %eax
	movslq	%eax, %rdx
	movq	%rdx, %rax
	addq	%rax, %rax
	addq	%rdx, %rax
	salq	$4, %rax
	leaq	(%rcx,%rax), %rax
	movq	%rax, -208(%rbp)
.L368:
	.loc 4 541 0
	movq	-208(%rbp), %rax
	movq	-200(%rbp), %rdx
	movq	%rdx, (%rax)
	movq	-208(%rbp), %rax
	leaq	8(%rax), %rdx
	movq	-192(%rbp), %rax
	movq	%rax, (%rdx)
	movq	-208(%rbp), %rax
	leaq	16(%rax), %rdx
	movq	-184(%rbp), %rax
	movq	%rax, (%rdx)
	movq	-208(%rbp), %rax
	leaq	24(%rax), %rdx
	movq	-176(%rbp), %rax
	movq	%rax, (%rdx)
	movq	-208(%rbp), %rax
	leaq	32(%rax), %rdx
	movq	-168(%rbp), %rax
	movq	%rax, (%rdx)
	movq	-208(%rbp), %rax
	leaq	40(%rax), %rdx
	movq	-160(%rbp), %rax
	movq	%rax, (%rdx)
	.loc 4 542 0
	cmpl	$0, -36(%rbp)
	jne	.L369
	addq	$48, -208(%rbp)
.L369:
	.loc 4 523 0
	addl	$1, -76(%rbp)
.L361:
	movl	-76(%rbp), %eax
	cmpl	-80(%rbp), %eax
	jl	.L370
	.loc 4 545 0
	leaq	-224(%rbp), %rdx
	movq	-256(%rbp), %rax
	movq	%rdx, %rsi
	movq	%rax, %rdi
	call	VecRestoreArrayRead
	movl	%eax, -84(%rbp)
	cmpl	$0, -84(%rbp)
	setne	%al
	movzbl	%al, %eax
	testq	%rax, %rax
	je	.L371
	movl	-84(%rbp), %eax
	movq	$.LC5, 8(%rsp)
	movl	$1, (%rsp)
	movl	%eax, %r9d
	movl	$.LC3, %r8d
	movl	$.LC6, %ecx
	movl	$__func__.26516, %edx
	movl	$545, %esi
	movl	$1140850689, %edi
	movl	$0, %eax
	call	PetscError
	jmp	.L357
.L371:
	.loc 4 546 0
	leaq	-232(%rbp), %rdx
	movq	-264(%rbp), %rax
	movq	%rdx, %rsi
	movq	%rax, %rdi
	call	VecRestoreArray
	movl	%eax, -84(%rbp)
	cmpl	$0, -84(%rbp)
	setne	%al
	movzbl	%al, %eax
	testq	%rax, %rax
	je	.L372
	movl	-84(%rbp), %eax
	movq	$.LC5, 8(%rsp)
	movl	$1, (%rsp)
	movl	%eax, %r9d
	movl	$.LC3, %r8d
	movl	$.LC6, %ecx
	movl	$__func__.26516, %edx
	movl	$546, %esi
	movl	$1140850689, %edi
	movl	$0, %eax
	call	PetscError
	jmp	.L357
.L372:
	.loc 4 547 0
	movq	-216(%rbp), %rax
	movl	128(%rax), %eax
	vcvtsi2sd	%eax, %xmm0, %xmm0
	vmovsd	.LC22(%rip), %xmm1
	vmulsd	%xmm1, %xmm0, %xmm1
	vcvtsi2sd	-40(%rbp), %xmm0, %xmm0
	vmovsd	.LC23(%rip), %xmm2
	vmulsd	%xmm2, %xmm0, %xmm0
	vaddsd	%xmm0, %xmm1, %xmm0
	vmovsd	_TotalFlops(%rip), %xmm1
	vaddsd	%xmm1, %xmm0, %xmm0
	vmovsd	%xmm0, _TotalFlops(%rip)
	movl	$0, -84(%rbp)
	cmpl	$0, -84(%rbp)
	setne	%al
	movzbl	%al, %eax
	testq	%rax, %rax
	je	.L373
	movl	-84(%rbp), %eax
	movq	$.LC5, 8(%rsp)
	movl	$1, (%rsp)
	movl	%eax, %r9d
	movl	$.LC3, %r8d
	movl	$.LC6, %ecx
	movl	$__func__.26516, %edx
	movl	$547, %esi
	movl	$1140850689, %edi
	movl	$0, %eax
	call	PetscError
	jmp	.L357
.L373:
	.loc 4 548 0
	movq	petscstack(%rip), %rax
	testq	%rax, %rax
	je	.L374
	movq	petscstack(%rip), %rax
	movl	1792(%rax), %eax
	testl	%eax, %eax
	jle	.L374
	movq	petscstack(%rip), %rax
	movl	1792(%rax), %edx
	subl	$1, %edx
	movl	%edx, 1792(%rax)
	movq	petscstack(%rip), %rax
	movq	petscstack(%rip), %rdx
	movl	1792(%rdx), %edx
	movslq	%edx, %rdx
	movq	$0, (%rax,%rdx,8)
	movq	petscstack(%rip), %rax
	movq	petscstack(%rip), %rdx
	movl	1792(%rdx), %edx
	movslq	%edx, %rdx
	addq	$64, %rdx
	movq	$0, (%rax,%rdx,8)
	movq	petscstack(%rip), %rax
	movq	petscstack(%rip), %rdx
	movl	1792(%rdx), %edx
	movslq	%edx, %rdx
	subq	$-128, %rdx
	movq	$0, (%rax,%rdx,8)
	movq	petscstack(%rip), %rax
	movq	petscstack(%rip), %rdx
	movl	1792(%rdx), %edx
	movslq	%edx, %rdx
	addq	$384, %rdx
	movl	$0, (%rax,%rdx,4)
.L374:
	movl	$0, %eax
.L357:
	.loc 4 549 0
	leave
	.cfi_def_cfa 7, 8
	ret
	.cfi_endproc
.LFE71:
	.size	MatMult_SeqBAIJ_6, .-MatMult_SeqBAIJ_6
.globl MatMult_SeqBAIJ_7
	.type	MatMult_SeqBAIJ_7, @function
MatMult_SeqBAIJ_7:
.LFB72:
	.loc 4 554 0
	.cfi_startproc
	pushq	%rbp
	.cfi_def_cfa_offset 16
	.cfi_offset 6, -16
	movq	%rsp, %rbp
	.cfi_def_cfa_register 6
	pushq	%rbx
	subq	$312, %rsp
	movq	%rdi, -280(%rbp)
	movq	%rsi, -288(%rbp)
	movq	%rdx, -296(%rbp)
	.loc 4 555 0
	movq	-280(%rbp), %rax
	movq	472(%rax), %rax
	movq	%rax, -248(%rbp)
	.loc 4 556 0
	movq	$0, -240(%rbp)
	.loc 4 561 0
	movq	$0, -64(%rbp)
	movl	$0, -56(%rbp)
	.loc 4 562 0
	movq	-248(%rbp), %rax
	movl	100(%rax), %eax
	movl	%eax, -52(%rbp)
	.loc 4 564 0
	movq	petscstack(%rip), %rax
	testq	%rax, %rax
	je	.L402
	.cfi_offset 3, -24
	movq	petscstack(%rip), %rax
	movl	1792(%rax), %eax
	cmpl	$63, %eax
	jg	.L403
	movq	petscstack(%rip), %rax
	movq	petscstack(%rip), %rdx
	movl	1792(%rdx), %edx
	movslq	%edx, %rdx
	movq	$__func__.26835, (%rax,%rdx,8)
	movq	petscstack(%rip), %rax
	movq	petscstack(%rip), %rdx
	movl	1792(%rdx), %edx
	movslq	%edx, %rdx
	addq	$64, %rdx
	movq	$.LC6, (%rax,%rdx,8)
	movq	petscstack(%rip), %rax
	movq	petscstack(%rip), %rdx
	movl	1792(%rdx), %edx
	movslq	%edx, %rdx
	subq	$-128, %rdx
	movq	$.LC3, (%rax,%rdx,8)
	movq	petscstack(%rip), %rax
	movq	petscstack(%rip), %rdx
	movl	1792(%rdx), %edx
	movslq	%edx, %rdx
	addq	$384, %rdx
	movl	$564, (%rax,%rdx,4)
	movq	petscstack(%rip), %rax
	movl	1792(%rax), %edx
	addl	$1, %edx
	movl	%edx, 1792(%rax)
	jmp	.L401
.L402:
	nop
	jmp	.L401
.L403:
	nop
.L401:
	.loc 4 565 0
	leaq	-256(%rbp), %rdx
	movq	-288(%rbp), %rax
	movq	%rdx, %rsi
	movq	%rax, %rdi
	call	VecGetArrayRead
	movl	%eax, -100(%rbp)
	cmpl	$0, -100(%rbp)
	setne	%al
	movzbl	%al, %eax
	testq	%rax, %rax
	je	.L381
	movl	-100(%rbp), %eax
	movq	$.LC5, 8(%rsp)
	movl	$1, (%rsp)
	movl	%eax, %r9d
	movl	$.LC3, %r8d
	movl	$.LC6, %ecx
	movl	$__func__.26835, %edx
	movl	$565, %esi
	movl	$1140850689, %edi
	movl	$0, %eax
	call	PetscError
	jmp	.L382
.L381:
	.loc 4 566 0
	leaq	-264(%rbp), %rdx
	movq	-296(%rbp), %rax
	movq	%rdx, %rsi
	movq	%rax, %rdi
	call	VecGetArray
	movl	%eax, -100(%rbp)
	cmpl	$0, -100(%rbp)
	setne	%al
	movzbl	%al, %eax
	testq	%rax, %rax
	je	.L383
	movl	-100(%rbp), %eax
	movq	$.LC5, 8(%rsp)
	movl	$1, (%rsp)
	movl	%eax, %r9d
	movl	$.LC3, %r8d
	movl	$.LC6, %ecx
	movl	$__func__.26835, %edx
	movl	$566, %esi
	movl	$1140850689, %edi
	movl	$0, %eax
	call	PetscError
	jmp	.L382
.L383:
	.loc 4 568 0
	movq	-248(%rbp), %rax
	movq	144(%rax), %rax
	movq	%rax, -88(%rbp)
	.loc 4 569 0
	movq	-248(%rbp), %rax
	movq	168(%rax), %rax
	movq	%rax, -112(%rbp)
	.loc 4 570 0
	cmpl	$0, -52(%rbp)
	je	.L384
	.loc 4 571 0
	movq	-248(%rbp), %rax
	movl	104(%rax), %eax
	movl	%eax, -96(%rbp)
	.loc 4 572 0
	movq	-248(%rbp), %rax
	movq	112(%rax), %rax
	movq	%rax, -80(%rbp)
	.loc 4 573 0
	movq	-248(%rbp), %rax
	movq	120(%rax), %rax
	movq	%rax, -64(%rbp)
	jmp	.L385
.L384:
	.loc 4 575 0
	movq	-248(%rbp), %rax
	movl	228(%rax), %eax
	movl	%eax, -96(%rbp)
	.loc 4 576 0
	movq	-248(%rbp), %rax
	movq	136(%rax), %rax
	movq	%rax, -80(%rbp)
	.loc 4 577 0
	movq	-264(%rbp), %rax
	movq	%rax, -240(%rbp)
.L385:
	.loc 4 580 0
	movl	$0, -92(%rbp)
	jmp	.L386
.L395:
	.loc 4 581 0
	movq	-80(%rbp), %rax
	addq	$4, %rax
	movl	(%rax), %edx
	movq	-80(%rbp), %rax
	movl	(%rax), %eax
	movl	%edx, %ecx
	subl	%eax, %ecx
	movl	%ecx, %eax
	movl	%eax, -68(%rbp)
	addq	$4, -80(%rbp)
	.loc 4 582 0
	movl	$0, %eax
	movq	%rax, -232(%rbp)
	movl	$0, %eax
	movq	%rax, -224(%rbp)
	movl	$0, %eax
	movq	%rax, -216(%rbp)
	movl	$0, %eax
	movq	%rax, -208(%rbp)
	movl	$0, %eax
	movq	%rax, -200(%rbp)
	movl	$0, %eax
	movq	%rax, -192(%rbp)
	movl	$0, %eax
	movq	%rax, -184(%rbp)
	.loc 4 583 0
	cmpl	$0, -68(%rbp)
	setg	%al
	movzbl	%al, %eax
	addl	%eax, -56(%rbp)
.LBB15:
	.loc 4 584 0
	movq	-88(%rbp), %rax
	movl	-68(%rbp), %edx
	movslq	%edx, %rdx
	salq	$2, %rdx
	addq	%rdx, %rax
	movq	%rax, -48(%rbp)
	movl	-68(%rbp), %eax
	cltq
	salq	$3, %rax
	addq	-88(%rbp), %rax
	movq	%rax, -40(%rbp)
	jmp	.L387
.L388:
	addq	$64, -48(%rbp)
.L387:
	movq	-48(%rbp), %rax
	cmpq	-40(%rbp), %rax
	jb	.L388
.LBE15:
.LBB16:
	.loc 4 585 0
	movq	-112(%rbp), %rdx
	movl	-68(%rbp), %eax
	cltq
	imulq	$392, %rax, %rax
	leaq	(%rdx,%rax), %rax
	movq	%rax, -32(%rbp)
	movl	-68(%rbp), %eax
	cltq
	imulq	$784, %rax, %rax
	addq	-112(%rbp), %rax
	movq	%rax, -24(%rbp)
	jmp	.L389
.L390:
	addq	$64, -32(%rbp)
.L389:
	movq	-32(%rbp), %rax
	cmpq	-24(%rbp), %rax
	jb	.L390
.LBE16:
	.loc 4 586 0
	movl	$0, -72(%rbp)
	jmp	.L391
.L392:
	.loc 4 587 0
	movq	-256(%rbp), %rdx
	movq	-88(%rbp), %rax
	movl	(%rax), %eax
	cltq
	salq	$3, %rax
	leaq	0(,%rax,8), %rcx
	movq	%rcx, %rbx
	subq	%rax, %rbx
	movq	%rbx, %rax
	leaq	(%rdx,%rax), %rax
	movq	%rax, -176(%rbp)
	addq	$4, -88(%rbp)
	.loc 4 588 0
	movq	-176(%rbp), %rax
	movq	(%rax), %rax
	movq	%rax, -168(%rbp)
	movq	-176(%rbp), %rax
	addq	$8, %rax
	movq	(%rax), %rax
	movq	%rax, -160(%rbp)
	movq	-176(%rbp), %rax
	addq	$16, %rax
	movq	(%rax), %rax
	movq	%rax, -152(%rbp)
	movq	-176(%rbp), %rax
	addq	$24, %rax
	movq	(%rax), %rax
	movq	%rax, -144(%rbp)
	movq	-176(%rbp), %rax
	addq	$32, %rax
	movq	(%rax), %rax
	movq	%rax, -136(%rbp)
	movq	-176(%rbp), %rax
	addq	$40, %rax
	movq	(%rax), %rax
	movq	%rax, -128(%rbp)
	movq	-176(%rbp), %rax
	addq	$48, %rax
	movq	(%rax), %rax
	movq	%rax, -120(%rbp)
	.loc 4 589 0
	movq	-112(%rbp), %rax
	vmovsd	(%rax), %xmm0
	vmulsd	-168(%rbp), %xmm0, %xmm1
	movq	-112(%rbp), %rax
	addq	$56, %rax
	vmovsd	(%rax), %xmm0
	vmulsd	-160(%rbp), %xmm0, %xmm0
	vaddsd	%xmm0, %xmm1, %xmm1
	movq	-112(%rbp), %rax
	addq	$112, %rax
	vmovsd	(%rax), %xmm0
	vmulsd	-152(%rbp), %xmm0, %xmm0
	vaddsd	%xmm0, %xmm1, %xmm1
	movq	-112(%rbp), %rax
	addq	$168, %rax
	vmovsd	(%rax), %xmm0
	vmulsd	-144(%rbp), %xmm0, %xmm0
	vaddsd	%xmm0, %xmm1, %xmm1
	movq	-112(%rbp), %rax
	addq	$224, %rax
	vmovsd	(%rax), %xmm0
	vmulsd	-136(%rbp), %xmm0, %xmm0
	vaddsd	%xmm0, %xmm1, %xmm1
	movq	-112(%rbp), %rax
	addq	$280, %rax
	vmovsd	(%rax), %xmm0
	vmulsd	-128(%rbp), %xmm0, %xmm0
	vaddsd	%xmm0, %xmm1, %xmm1
	movq	-112(%rbp), %rax
	addq	$336, %rax
	vmovsd	(%rax), %xmm0
	vmulsd	-120(%rbp), %xmm0, %xmm0
	vaddsd	%xmm0, %xmm1, %xmm0
	vmovsd	-232(%rbp), %xmm1
	vaddsd	%xmm0, %xmm1, %xmm0
	vmovsd	%xmm0, -232(%rbp)
	.loc 4 590 0
	movq	-112(%rbp), %rax
	addq	$8, %rax
	vmovsd	(%rax), %xmm0
	vmulsd	-168(%rbp), %xmm0, %xmm1
	movq	-112(%rbp), %rax
	addq	$64, %rax
	vmovsd	(%rax), %xmm0
	vmulsd	-160(%rbp), %xmm0, %xmm0
	vaddsd	%xmm0, %xmm1, %xmm1
	movq	-112(%rbp), %rax
	addq	$120, %rax
	vmovsd	(%rax), %xmm0
	vmulsd	-152(%rbp), %xmm0, %xmm0
	vaddsd	%xmm0, %xmm1, %xmm1
	movq	-112(%rbp), %rax
	addq	$176, %rax
	vmovsd	(%rax), %xmm0
	vmulsd	-144(%rbp), %xmm0, %xmm0
	vaddsd	%xmm0, %xmm1, %xmm1
	movq	-112(%rbp), %rax
	addq	$232, %rax
	vmovsd	(%rax), %xmm0
	vmulsd	-136(%rbp), %xmm0, %xmm0
	vaddsd	%xmm0, %xmm1, %xmm1
	movq	-112(%rbp), %rax
	addq	$288, %rax
	vmovsd	(%rax), %xmm0
	vmulsd	-128(%rbp), %xmm0, %xmm0
	vaddsd	%xmm0, %xmm1, %xmm1
	movq	-112(%rbp), %rax
	addq	$344, %rax
	vmovsd	(%rax), %xmm0
	vmulsd	-120(%rbp), %xmm0, %xmm0
	vaddsd	%xmm0, %xmm1, %xmm0
	vmovsd	-224(%rbp), %xmm1
	vaddsd	%xmm0, %xmm1, %xmm0
	vmovsd	%xmm0, -224(%rbp)
	.loc 4 591 0
	movq	-112(%rbp), %rax
	addq	$16, %rax
	vmovsd	(%rax), %xmm0
	vmulsd	-168(%rbp), %xmm0, %xmm1
	movq	-112(%rbp), %rax
	addq	$72, %rax
	vmovsd	(%rax), %xmm0
	vmulsd	-160(%rbp), %xmm0, %xmm0
	vaddsd	%xmm0, %xmm1, %xmm1
	movq	-112(%rbp), %rax
	subq	$-128, %rax
	vmovsd	(%rax), %xmm0
	vmulsd	-152(%rbp), %xmm0, %xmm0
	vaddsd	%xmm0, %xmm1, %xmm1
	movq	-112(%rbp), %rax
	addq	$184, %rax
	vmovsd	(%rax), %xmm0
	vmulsd	-144(%rbp), %xmm0, %xmm0
	vaddsd	%xmm0, %xmm1, %xmm1
	movq	-112(%rbp), %rax
	addq	$240, %rax
	vmovsd	(%rax), %xmm0
	vmulsd	-136(%rbp), %xmm0, %xmm0
	vaddsd	%xmm0, %xmm1, %xmm1
	movq	-112(%rbp), %rax
	addq	$296, %rax
	vmovsd	(%rax), %xmm0
	vmulsd	-128(%rbp), %xmm0, %xmm0
	vaddsd	%xmm0, %xmm1, %xmm1
	movq	-112(%rbp), %rax
	addq	$352, %rax
	vmovsd	(%rax), %xmm0
	vmulsd	-120(%rbp), %xmm0, %xmm0
	vaddsd	%xmm0, %xmm1, %xmm0
	vmovsd	-216(%rbp), %xmm1
	vaddsd	%xmm0, %xmm1, %xmm0
	vmovsd	%xmm0, -216(%rbp)
	.loc 4 592 0
	movq	-112(%rbp), %rax
	addq	$24, %rax
	vmovsd	(%rax), %xmm0
	vmulsd	-168(%rbp), %xmm0, %xmm1
	movq	-112(%rbp), %rax
	addq	$80, %rax
	vmovsd	(%rax), %xmm0
	vmulsd	-160(%rbp), %xmm0, %xmm0
	vaddsd	%xmm0, %xmm1, %xmm1
	movq	-112(%rbp), %rax
	addq	$136, %rax
	vmovsd	(%rax), %xmm0
	vmulsd	-152(%rbp), %xmm0, %xmm0
	vaddsd	%xmm0, %xmm1, %xmm1
	movq	-112(%rbp), %rax
	addq	$192, %rax
	vmovsd	(%rax), %xmm0
	vmulsd	-144(%rbp), %xmm0, %xmm0
	vaddsd	%xmm0, %xmm1, %xmm1
	movq	-112(%rbp), %rax
	addq	$248, %rax
	vmovsd	(%rax), %xmm0
	vmulsd	-136(%rbp), %xmm0, %xmm0
	vaddsd	%xmm0, %xmm1, %xmm1
	movq	-112(%rbp), %rax
	addq	$304, %rax
	vmovsd	(%rax), %xmm0
	vmulsd	-128(%rbp), %xmm0, %xmm0
	vaddsd	%xmm0, %xmm1, %xmm1
	movq	-112(%rbp), %rax
	addq	$360, %rax
	vmovsd	(%rax), %xmm0
	vmulsd	-120(%rbp), %xmm0, %xmm0
	vaddsd	%xmm0, %xmm1, %xmm0
	vmovsd	-208(%rbp), %xmm1
	vaddsd	%xmm0, %xmm1, %xmm0
	vmovsd	%xmm0, -208(%rbp)
	.loc 4 593 0
	movq	-112(%rbp), %rax
	addq	$32, %rax
	vmovsd	(%rax), %xmm0
	vmulsd	-168(%rbp), %xmm0, %xmm1
	movq	-112(%rbp), %rax
	addq	$88, %rax
	vmovsd	(%rax), %xmm0
	vmulsd	-160(%rbp), %xmm0, %xmm0
	vaddsd	%xmm0, %xmm1, %xmm1
	movq	-112(%rbp), %rax
	addq	$144, %rax
	vmovsd	(%rax), %xmm0
	vmulsd	-152(%rbp), %xmm0, %xmm0
	vaddsd	%xmm0, %xmm1, %xmm1
	movq	-112(%rbp), %rax
	addq	$200, %rax
	vmovsd	(%rax), %xmm0
	vmulsd	-144(%rbp), %xmm0, %xmm0
	vaddsd	%xmm0, %xmm1, %xmm1
	movq	-112(%rbp), %rax
	addq	$256, %rax
	vmovsd	(%rax), %xmm0
	vmulsd	-136(%rbp), %xmm0, %xmm0
	vaddsd	%xmm0, %xmm1, %xmm1
	movq	-112(%rbp), %rax
	addq	$312, %rax
	vmovsd	(%rax), %xmm0
	vmulsd	-128(%rbp), %xmm0, %xmm0
	vaddsd	%xmm0, %xmm1, %xmm1
	movq	-112(%rbp), %rax
	addq	$368, %rax
	vmovsd	(%rax), %xmm0
	vmulsd	-120(%rbp), %xmm0, %xmm0
	vaddsd	%xmm0, %xmm1, %xmm0
	vmovsd	-200(%rbp), %xmm1
	vaddsd	%xmm0, %xmm1, %xmm0
	vmovsd	%xmm0, -200(%rbp)
	.loc 4 594 0
	movq	-112(%rbp), %rax
	addq	$40, %rax
	vmovsd	(%rax), %xmm0
	vmulsd	-168(%rbp), %xmm0, %xmm1
	movq	-112(%rbp), %rax
	addq	$96, %rax
	vmovsd	(%rax), %xmm0
	vmulsd	-160(%rbp), %xmm0, %xmm0
	vaddsd	%xmm0, %xmm1, %xmm1
	movq	-112(%rbp), %rax
	addq	$152, %rax
	vmovsd	(%rax), %xmm0
	vmulsd	-152(%rbp), %xmm0, %xmm0
	vaddsd	%xmm0, %xmm1, %xmm1
	movq	-112(%rbp), %rax
	addq	$208, %rax
	vmovsd	(%rax), %xmm0
	vmulsd	-144(%rbp), %xmm0, %xmm0
	vaddsd	%xmm0, %xmm1, %xmm1
	movq	-112(%rbp), %rax
	addq	$264, %rax
	vmovsd	(%rax), %xmm0
	vmulsd	-136(%rbp), %xmm0, %xmm0
	vaddsd	%xmm0, %xmm1, %xmm1
	movq	-112(%rbp), %rax
	addq	$320, %rax
	vmovsd	(%rax), %xmm0
	vmulsd	-128(%rbp), %xmm0, %xmm0
	vaddsd	%xmm0, %xmm1, %xmm1
	movq	-112(%rbp), %rax
	addq	$376, %rax
	vmovsd	(%rax), %xmm0
	vmulsd	-120(%rbp), %xmm0, %xmm0
	vaddsd	%xmm0, %xmm1, %xmm0
	vmovsd	-192(%rbp), %xmm1
	vaddsd	%xmm0, %xmm1, %xmm0
	vmovsd	%xmm0, -192(%rbp)
	.loc 4 595 0
	movq	-112(%rbp), %rax
	addq	$48, %rax
	vmovsd	(%rax), %xmm0
	vmulsd	-168(%rbp), %xmm0, %xmm1
	movq	-112(%rbp), %rax
	addq	$104, %rax
	vmovsd	(%rax), %xmm0
	vmulsd	-160(%rbp), %xmm0, %xmm0
	vaddsd	%xmm0, %xmm1, %xmm1
	movq	-112(%rbp), %rax
	addq	$160, %rax
	vmovsd	(%rax), %xmm0
	vmulsd	-152(%rbp), %xmm0, %xmm0
	vaddsd	%xmm0, %xmm1, %xmm1
	movq	-112(%rbp), %rax
	addq	$216, %rax
	vmovsd	(%rax), %xmm0
	vmulsd	-144(%rbp), %xmm0, %xmm0
	vaddsd	%xmm0, %xmm1, %xmm1
	movq	-112(%rbp), %rax
	addq	$272, %rax
	vmovsd	(%rax), %xmm0
	vmulsd	-136(%rbp), %xmm0, %xmm0
	vaddsd	%xmm0, %xmm1, %xmm1
	movq	-112(%rbp), %rax
	addq	$328, %rax
	vmovsd	(%rax), %xmm0
	vmulsd	-128(%rbp), %xmm0, %xmm0
	vaddsd	%xmm0, %xmm1, %xmm1
	movq	-112(%rbp), %rax
	addq	$384, %rax
	vmovsd	(%rax), %xmm0
	vmulsd	-120(%rbp), %xmm0, %xmm0
	vaddsd	%xmm0, %xmm1, %xmm0
	vmovsd	-184(%rbp), %xmm1
	vaddsd	%xmm0, %xmm1, %xmm0
	vmovsd	%xmm0, -184(%rbp)
	.loc 4 596 0
	addq	$392, -112(%rbp)
	.loc 4 586 0
	addl	$1, -72(%rbp)
.L391:
	movl	-72(%rbp), %eax
	cmpl	-68(%rbp), %eax
	jl	.L392
	.loc 4 598 0
	cmpl	$0, -52(%rbp)
	je	.L393
	movq	-264(%rbp), %rdx
	movl	-92(%rbp), %eax
	cltq
	salq	$2, %rax
	addq	-64(%rbp), %rax
	movl	(%rax), %eax
	cltq
	salq	$3, %rax
	leaq	0(,%rax,8), %rcx
	movq	%rcx, %rbx
	subq	%rax, %rbx
	movq	%rbx, %rax
	leaq	(%rdx,%rax), %rax
	movq	%rax, -240(%rbp)
.L393:
	.loc 4 599 0
	movq	-240(%rbp), %rax
	movq	-232(%rbp), %rdx
	movq	%rdx, (%rax)
	movq	-240(%rbp), %rax
	leaq	8(%rax), %rdx
	movq	-224(%rbp), %rax
	movq	%rax, (%rdx)
	movq	-240(%rbp), %rax
	leaq	16(%rax), %rdx
	movq	-216(%rbp), %rax
	movq	%rax, (%rdx)
	movq	-240(%rbp), %rax
	leaq	24(%rax), %rdx
	movq	-208(%rbp), %rax
	movq	%rax, (%rdx)
	movq	-240(%rbp), %rax
	leaq	32(%rax), %rdx
	movq	-200(%rbp), %rax
	movq	%rax, (%rdx)
	movq	-240(%rbp), %rax
	leaq	40(%rax), %rdx
	movq	-192(%rbp), %rax
	movq	%rax, (%rdx)
	movq	-240(%rbp), %rax
	leaq	48(%rax), %rdx
	movq	-184(%rbp), %rax
	movq	%rax, (%rdx)
	.loc 4 600 0
	cmpl	$0, -52(%rbp)
	jne	.L394
	addq	$56, -240(%rbp)
.L394:
	.loc 4 580 0
	addl	$1, -92(%rbp)
.L386:
	movl	-92(%rbp), %eax
	cmpl	-96(%rbp), %eax
	jl	.L395
	.loc 4 603 0
	leaq	-256(%rbp), %rdx
	movq	-288(%rbp), %rax
	movq	%rdx, %rsi
	movq	%rax, %rdi
	call	VecRestoreArrayRead
	movl	%eax, -100(%rbp)
	cmpl	$0, -100(%rbp)
	setne	%al
	movzbl	%al, %eax
	testq	%rax, %rax
	je	.L396
	movl	-100(%rbp), %eax
	movq	$.LC5, 8(%rsp)
	movl	$1, (%rsp)
	movl	%eax, %r9d
	movl	$.LC3, %r8d
	movl	$.LC6, %ecx
	movl	$__func__.26835, %edx
	movl	$603, %esi
	movl	$1140850689, %edi
	movl	$0, %eax
	call	PetscError
	jmp	.L382
.L396:
	.loc 4 604 0
	leaq	-264(%rbp), %rdx
	movq	-296(%rbp), %rax
	movq	%rdx, %rsi
	movq	%rax, %rdi
	call	VecRestoreArray
	movl	%eax, -100(%rbp)
	cmpl	$0, -100(%rbp)
	setne	%al
	movzbl	%al, %eax
	testq	%rax, %rax
	je	.L397
	movl	-100(%rbp), %eax
	movq	$.LC5, 8(%rsp)
	movl	$1, (%rsp)
	movl	%eax, %r9d
	movl	$.LC3, %r8d
	movl	$.LC6, %ecx
	movl	$__func__.26835, %edx
	movl	$604, %esi
	movl	$1140850689, %edi
	movl	$0, %eax
	call	PetscError
	jmp	.L382
.L397:
	.loc 4 605 0
	movq	-248(%rbp), %rax
	movl	128(%rax), %eax
	vcvtsi2sd	%eax, %xmm0, %xmm0
	vmovsd	.LC24(%rip), %xmm1
	vmulsd	%xmm1, %xmm0, %xmm1
	vcvtsi2sd	-56(%rbp), %xmm0, %xmm0
	vmovsd	.LC25(%rip), %xmm2
	vmulsd	%xmm2, %xmm0, %xmm0
	vaddsd	%xmm0, %xmm1, %xmm0
	vmovsd	_TotalFlops(%rip), %xmm1
	vaddsd	%xmm1, %xmm0, %xmm0
	vmovsd	%xmm0, _TotalFlops(%rip)
	movl	$0, -100(%rbp)
	cmpl	$0, -100(%rbp)
	setne	%al
	movzbl	%al, %eax
	testq	%rax, %rax
	je	.L398
	movl	-100(%rbp), %eax
	movq	$.LC5, 8(%rsp)
	movl	$1, (%rsp)
	movl	%eax, %r9d
	movl	$.LC3, %r8d
	movl	$.LC6, %ecx
	movl	$__func__.26835, %edx
	movl	$605, %esi
	movl	$1140850689, %edi
	movl	$0, %eax
	call	PetscError
	jmp	.L382
.L398:
	.loc 4 606 0
	movq	petscstack(%rip), %rax
	testq	%rax, %rax
	je	.L399
	movq	petscstack(%rip), %rax
	movl	1792(%rax), %eax
	testl	%eax, %eax
	jle	.L399
	movq	petscstack(%rip), %rax
	movl	1792(%rax), %edx
	subl	$1, %edx
	movl	%edx, 1792(%rax)
	movq	petscstack(%rip), %rax
	movq	petscstack(%rip), %rdx
	movl	1792(%rdx), %edx
	movslq	%edx, %rdx
	movq	$0, (%rax,%rdx,8)
	movq	petscstack(%rip), %rax
	movq	petscstack(%rip), %rdx
	movl	1792(%rdx), %edx
	movslq	%edx, %rdx
	addq	$64, %rdx
	movq	$0, (%rax,%rdx,8)
	movq	petscstack(%rip), %rax
	movq	petscstack(%rip), %rdx
	movl	1792(%rdx), %edx
	movslq	%edx, %rdx
	subq	$-128, %rdx
	movq	$0, (%rax,%rdx,8)
	movq	petscstack(%rip), %rax
	movq	petscstack(%rip), %rdx
	movl	1792(%rdx), %edx
	movslq	%edx, %rdx
	addq	$384, %rdx
	movl	$0, (%rax,%rdx,4)
.L399:
	movl	$0, %eax
.L382:
	.loc 4 607 0
	addq	$312, %rsp
	popq	%rbx
	leave
	.cfi_def_cfa 7, 8
	ret
	.cfi_endproc
.LFE72:
	.size	MatMult_SeqBAIJ_7, .-MatMult_SeqBAIJ_7
.globl MatMult_SeqBAIJ_15_ver1
	.type	MatMult_SeqBAIJ_15_ver1, @function
MatMult_SeqBAIJ_15_ver1:
.LFB73:
	.loc 4 615 0
	.cfi_startproc
	pushq	%rbp
	.cfi_def_cfa_offset 16
	.cfi_offset 6, -16
	movq	%rsp, %rbp
	.cfi_def_cfa_register 6
	pushq	%rbx
	subq	$312, %rsp
	movq	%rdi, -280(%rbp)
	movq	%rsi, -288(%rbp)
	movq	%rdx, -296(%rbp)
	.loc 4 616 0
	movq	-280(%rbp), %rax
	movq	472(%rax), %rax
	movq	%rax, -248(%rbp)
	.loc 4 617 0
	movq	$0, -240(%rbp)
	.loc 4 622 0
	movq	-248(%rbp), %rax
	movq	144(%rax), %rax
	movq	%rax, -72(%rbp)
	.loc 4 623 0
	movq	$0, -32(%rbp)
	movl	$0, -24(%rbp)
	.loc 4 624 0
	movq	-248(%rbp), %rax
	movl	100(%rax), %eax
	movl	%eax, -20(%rbp)
	.loc 4 626 0
	movq	petscstack(%rip), %rax
	testq	%rax, %rax
	je	.L425
	.cfi_offset 3, -24
	movq	petscstack(%rip), %rax
	movl	1792(%rax), %eax
	cmpl	$63, %eax
	jg	.L426
	movq	petscstack(%rip), %rax
	movq	petscstack(%rip), %rdx
	movl	1792(%rdx), %edx
	movslq	%edx, %rdx
	movq	$__func__.27211, (%rax,%rdx,8)
	movq	petscstack(%rip), %rax
	movq	petscstack(%rip), %rdx
	movl	1792(%rdx), %edx
	movslq	%edx, %rdx
	addq	$64, %rdx
	movq	$.LC6, (%rax,%rdx,8)
	movq	petscstack(%rip), %rax
	movq	petscstack(%rip), %rdx
	movl	1792(%rdx), %edx
	movslq	%edx, %rdx
	subq	$-128, %rdx
	movq	$.LC3, (%rax,%rdx,8)
	movq	petscstack(%rip), %rax
	movq	petscstack(%rip), %rdx
	movl	1792(%rdx), %edx
	movslq	%edx, %rdx
	addq	$384, %rdx
	movl	$626, (%rax,%rdx,4)
	movq	petscstack(%rip), %rax
	movl	1792(%rax), %edx
	addl	$1, %edx
	movl	%edx, 1792(%rax)
	jmp	.L424
.L425:
	nop
	jmp	.L424
.L426:
	nop
.L424:
	.loc 4 627 0
	leaq	-256(%rbp), %rdx
	movq	-288(%rbp), %rax
	movq	%rdx, %rsi
	movq	%rax, %rdi
	call	VecGetArrayRead
	movl	%eax, -84(%rbp)
	cmpl	$0, -84(%rbp)
	setne	%al
	movzbl	%al, %eax
	testq	%rax, %rax
	je	.L406
	movl	-84(%rbp), %eax
	movq	$.LC5, 8(%rsp)
	movl	$1, (%rsp)
	movl	%eax, %r9d
	movl	$.LC3, %r8d
	movl	$.LC6, %ecx
	movl	$__func__.27211, %edx
	movl	$627, %esi
	movl	$1140850689, %edi
	movl	$0, %eax
	call	PetscError
	jmp	.L407
.L406:
	.loc 4 628 0
	leaq	-264(%rbp), %rdx
	movq	-296(%rbp), %rax
	movq	%rdx, %rsi
	movq	%rax, %rdi
	call	VecGetArray
	movl	%eax, -84(%rbp)
	cmpl	$0, -84(%rbp)
	setne	%al
	movzbl	%al, %eax
	testq	%rax, %rax
	je	.L408
	movl	-84(%rbp), %eax
	movq	$.LC5, 8(%rsp)
	movl	$1, (%rsp)
	movl	%eax, %r9d
	movl	$.LC3, %r8d
	movl	$.LC6, %ecx
	movl	$__func__.27211, %edx
	movl	$628, %esi
	movl	$1140850689, %edi
	movl	$0, %eax
	call	PetscError
	jmp	.L407
.L408:
	.loc 4 630 0
	movq	-248(%rbp), %rax
	movq	168(%rax), %rax
	movq	%rax, -96(%rbp)
	.loc 4 631 0
	cmpl	$0, -20(%rbp)
	je	.L409
	.loc 4 632 0
	movq	-248(%rbp), %rax
	movl	104(%rax), %eax
	movl	%eax, -52(%rbp)
	.loc 4 633 0
	movq	-248(%rbp), %rax
	movq	112(%rax), %rax
	movq	%rax, -80(%rbp)
	.loc 4 634 0
	movq	-248(%rbp), %rax
	movq	120(%rax), %rax
	movq	%rax, -32(%rbp)
	jmp	.L410
.L409:
	.loc 4 636 0
	movq	-248(%rbp), %rax
	movl	228(%rax), %eax
	movl	%eax, -52(%rbp)
	.loc 4 637 0
	movq	-248(%rbp), %rax
	movq	136(%rax), %rax
	movq	%rax, -80(%rbp)
	.loc 4 638 0
	movq	-264(%rbp), %rax
	movq	%rax, -240(%rbp)
.L410:
	.loc 4 641 0
	movl	$0, -48(%rbp)
	jmp	.L411
.L418:
	.loc 4 642 0
	movl	-48(%rbp), %eax
	cltq
	addq	$1, %rax
	salq	$2, %rax
	addq	-80(%rbp), %rax
	movl	(%rax), %edx
	movl	-48(%rbp), %eax
	cltq
	salq	$2, %rax
	addq	-80(%rbp), %rax
	movl	(%rax), %eax
	movl	%edx, %ecx
	subl	%eax, %ecx
	movl	%ecx, %eax
	movl	%eax, -36(%rbp)
	.loc 4 643 0
	movl	-48(%rbp), %eax
	cltq
	salq	$2, %rax
	addq	-80(%rbp), %rax
	movl	(%rax), %eax
	cltq
	salq	$2, %rax
	addq	-72(%rbp), %rax
	movq	%rax, -64(%rbp)
	.loc 4 644 0
	movl	$0, %eax
	movq	%rax, -232(%rbp)
	movl	$0, %eax
	movq	%rax, -224(%rbp)
	movl	$0, %eax
	movq	%rax, -216(%rbp)
	movl	$0, %eax
	movq	%rax, -208(%rbp)
	movl	$0, %eax
	movq	%rax, -200(%rbp)
	movl	$0, %eax
	movq	%rax, -192(%rbp)
	movl	$0, %eax
	movq	%rax, -184(%rbp)
	.loc 4 645 0
	movl	$0, %eax
	movq	%rax, -176(%rbp)
	movl	$0, %eax
	movq	%rax, -168(%rbp)
	movl	$0, %eax
	movq	%rax, -160(%rbp)
	movl	$0, %eax
	movq	%rax, -152(%rbp)
	movl	$0, %eax
	movq	%rax, -144(%rbp)
	movl	$0, %eax
	movq	%rax, -136(%rbp)
	movl	$0, %eax
	movq	%rax, -128(%rbp)
	movl	$0, %eax
	movq	%rax, -120(%rbp)
	.loc 4 647 0
	cmpl	$0, -36(%rbp)
	setg	%al
	movzbl	%al, %eax
	addl	%eax, -24(%rbp)
	.loc 4 648 0
	movl	$0, -44(%rbp)
	jmp	.L412
.L415:
	.loc 4 649 0
	movq	-256(%rbp), %rdx
	movl	-44(%rbp), %eax
	cltq
	salq	$2, %rax
	addq	-64(%rbp), %rax
	movl	(%rax), %eax
	cltq
	salq	$3, %rax
	movq	%rax, %rcx
	salq	$4, %rcx
	movq	%rcx, %rbx
	subq	%rax, %rbx
	movq	%rbx, %rax
	leaq	(%rdx,%rax), %rax
	movq	%rax, -112(%rbp)
	.loc 4 651 0
	movl	$0, -40(%rbp)
	jmp	.L413
.L414:
	.loc 4 652 0
	movl	-40(%rbp), %eax
	cltq
	salq	$3, %rax
	addq	-112(%rbp), %rax
	movq	(%rax), %rax
	movq	%rax, -104(%rbp)
	.loc 4 653 0
	movq	-96(%rbp), %rax
	vmovsd	(%rax), %xmm0
	vmulsd	-104(%rbp), %xmm0, %xmm0
	vmovsd	-232(%rbp), %xmm1
	vaddsd	%xmm0, %xmm1, %xmm0
	vmovsd	%xmm0, -232(%rbp)
	.loc 4 654 0
	movq	-96(%rbp), %rax
	addq	$8, %rax
	vmovsd	(%rax), %xmm0
	vmulsd	-104(%rbp), %xmm0, %xmm0
	vmovsd	-224(%rbp), %xmm1
	vaddsd	%xmm0, %xmm1, %xmm0
	vmovsd	%xmm0, -224(%rbp)
	.loc 4 655 0
	movq	-96(%rbp), %rax
	addq	$16, %rax
	vmovsd	(%rax), %xmm0
	vmulsd	-104(%rbp), %xmm0, %xmm0
	vmovsd	-216(%rbp), %xmm1
	vaddsd	%xmm0, %xmm1, %xmm0
	vmovsd	%xmm0, -216(%rbp)
	.loc 4 656 0
	movq	-96(%rbp), %rax
	addq	$24, %rax
	vmovsd	(%rax), %xmm0
	vmulsd	-104(%rbp), %xmm0, %xmm0
	vmovsd	-208(%rbp), %xmm1
	vaddsd	%xmm0, %xmm1, %xmm0
	vmovsd	%xmm0, -208(%rbp)
	.loc 4 657 0
	movq	-96(%rbp), %rax
	addq	$32, %rax
	vmovsd	(%rax), %xmm0
	vmulsd	-104(%rbp), %xmm0, %xmm0
	vmovsd	-200(%rbp), %xmm1
	vaddsd	%xmm0, %xmm1, %xmm0
	vmovsd	%xmm0, -200(%rbp)
	.loc 4 658 0
	movq	-96(%rbp), %rax
	addq	$40, %rax
	vmovsd	(%rax), %xmm0
	vmulsd	-104(%rbp), %xmm0, %xmm0
	vmovsd	-192(%rbp), %xmm1
	vaddsd	%xmm0, %xmm1, %xmm0
	vmovsd	%xmm0, -192(%rbp)
	.loc 4 659 0
	movq	-96(%rbp), %rax
	addq	$48, %rax
	vmovsd	(%rax), %xmm0
	vmulsd	-104(%rbp), %xmm0, %xmm0
	vmovsd	-184(%rbp), %xmm1
	vaddsd	%xmm0, %xmm1, %xmm0
	vmovsd	%xmm0, -184(%rbp)
	.loc 4 660 0
	movq	-96(%rbp), %rax
	addq	$56, %rax
	vmovsd	(%rax), %xmm0
	vmulsd	-104(%rbp), %xmm0, %xmm0
	vmovsd	-176(%rbp), %xmm1
	vaddsd	%xmm0, %xmm1, %xmm0
	vmovsd	%xmm0, -176(%rbp)
	.loc 4 661 0
	movq	-96(%rbp), %rax
	addq	$64, %rax
	vmovsd	(%rax), %xmm0
	vmulsd	-104(%rbp), %xmm0, %xmm0
	vmovsd	-168(%rbp), %xmm1
	vaddsd	%xmm0, %xmm1, %xmm0
	vmovsd	%xmm0, -168(%rbp)
	.loc 4 662 0
	movq	-96(%rbp), %rax
	addq	$72, %rax
	vmovsd	(%rax), %xmm0
	vmulsd	-104(%rbp), %xmm0, %xmm0
	vmovsd	-160(%rbp), %xmm1
	vaddsd	%xmm0, %xmm1, %xmm0
	vmovsd	%xmm0, -160(%rbp)
	.loc 4 663 0
	movq	-96(%rbp), %rax
	addq	$80, %rax
	vmovsd	(%rax), %xmm0
	vmulsd	-104(%rbp), %xmm0, %xmm0
	vmovsd	-152(%rbp), %xmm1
	vaddsd	%xmm0, %xmm1, %xmm0
	vmovsd	%xmm0, -152(%rbp)
	.loc 4 664 0
	movq	-96(%rbp), %rax
	addq	$88, %rax
	vmovsd	(%rax), %xmm0
	vmulsd	-104(%rbp), %xmm0, %xmm0
	vmovsd	-144(%rbp), %xmm1
	vaddsd	%xmm0, %xmm1, %xmm0
	vmovsd	%xmm0, -144(%rbp)
	.loc 4 665 0
	movq	-96(%rbp), %rax
	addq	$96, %rax
	vmovsd	(%rax), %xmm0
	vmulsd	-104(%rbp), %xmm0, %xmm0
	vmovsd	-136(%rbp), %xmm1
	vaddsd	%xmm0, %xmm1, %xmm0
	vmovsd	%xmm0, -136(%rbp)
	.loc 4 666 0
	movq	-96(%rbp), %rax
	addq	$104, %rax
	vmovsd	(%rax), %xmm0
	vmulsd	-104(%rbp), %xmm0, %xmm0
	vmovsd	-128(%rbp), %xmm1
	vaddsd	%xmm0, %xmm1, %xmm0
	vmovsd	%xmm0, -128(%rbp)
	.loc 4 667 0
	movq	-96(%rbp), %rax
	addq	$112, %rax
	vmovsd	(%rax), %xmm0
	vmulsd	-104(%rbp), %xmm0, %xmm0
	vmovsd	-120(%rbp), %xmm1
	vaddsd	%xmm0, %xmm1, %xmm0
	vmovsd	%xmm0, -120(%rbp)
	.loc 4 668 0
	addq	$120, -96(%rbp)
	.loc 4 651 0
	addl	$1, -40(%rbp)
.L413:
	cmpl	$14, -40(%rbp)
	jle	.L414
	.loc 4 648 0
	addl	$1, -44(%rbp)
.L412:
	movl	-44(%rbp), %eax
	cmpl	-36(%rbp), %eax
	jl	.L415
	.loc 4 671 0
	cmpl	$0, -20(%rbp)
	je	.L416
	movq	-264(%rbp), %rdx
	movl	-48(%rbp), %eax
	cltq
	salq	$2, %rax
	addq	-32(%rbp), %rax
	movl	(%rax), %eax
	cltq
	salq	$3, %rax
	movq	%rax, %rcx
	salq	$4, %rcx
	movq	%rcx, %rbx
	subq	%rax, %rbx
	movq	%rbx, %rax
	leaq	(%rdx,%rax), %rax
	movq	%rax, -240(%rbp)
.L416:
	.loc 4 672 0
	movq	-240(%rbp), %rax
	movq	-232(%rbp), %rdx
	movq	%rdx, (%rax)
	movq	-240(%rbp), %rax
	leaq	8(%rax), %rdx
	movq	-224(%rbp), %rax
	movq	%rax, (%rdx)
	movq	-240(%rbp), %rax
	leaq	16(%rax), %rdx
	movq	-216(%rbp), %rax
	movq	%rax, (%rdx)
	movq	-240(%rbp), %rax
	leaq	24(%rax), %rdx
	movq	-208(%rbp), %rax
	movq	%rax, (%rdx)
	movq	-240(%rbp), %rax
	leaq	32(%rax), %rdx
	movq	-200(%rbp), %rax
	movq	%rax, (%rdx)
	movq	-240(%rbp), %rax
	leaq	40(%rax), %rdx
	movq	-192(%rbp), %rax
	movq	%rax, (%rdx)
	movq	-240(%rbp), %rax
	leaq	48(%rax), %rdx
	movq	-184(%rbp), %rax
	movq	%rax, (%rdx)
	.loc 4 673 0
	movq	-240(%rbp), %rax
	leaq	56(%rax), %rdx
	movq	-176(%rbp), %rax
	movq	%rax, (%rdx)
	movq	-240(%rbp), %rax
	leaq	64(%rax), %rdx
	movq	-168(%rbp), %rax
	movq	%rax, (%rdx)
	movq	-240(%rbp), %rax
	leaq	72(%rax), %rdx
	movq	-160(%rbp), %rax
	movq	%rax, (%rdx)
	movq	-240(%rbp), %rax
	leaq	80(%rax), %rdx
	movq	-152(%rbp), %rax
	movq	%rax, (%rdx)
	movq	-240(%rbp), %rax
	leaq	88(%rax), %rdx
	movq	-144(%rbp), %rax
	movq	%rax, (%rdx)
	movq	-240(%rbp), %rax
	leaq	96(%rax), %rdx
	movq	-136(%rbp), %rax
	movq	%rax, (%rdx)
	movq	-240(%rbp), %rax
	leaq	104(%rax), %rdx
	movq	-128(%rbp), %rax
	movq	%rax, (%rdx)
	movq	-240(%rbp), %rax
	leaq	112(%rax), %rdx
	movq	-120(%rbp), %rax
	movq	%rax, (%rdx)
	.loc 4 675 0
	cmpl	$0, -20(%rbp)
	jne	.L417
	addq	$120, -240(%rbp)
.L417:
	.loc 4 641 0
	addl	$1, -48(%rbp)
.L411:
	movl	-48(%rbp), %eax
	cmpl	-52(%rbp), %eax
	jl	.L418
	.loc 4 678 0
	leaq	-256(%rbp), %rdx
	movq	-288(%rbp), %rax
	movq	%rdx, %rsi
	movq	%rax, %rdi
	call	VecRestoreArrayRead
	movl	%eax, -84(%rbp)
	cmpl	$0, -84(%rbp)
	setne	%al
	movzbl	%al, %eax
	testq	%rax, %rax
	je	.L419
	movl	-84(%rbp), %eax
	movq	$.LC5, 8(%rsp)
	movl	$1, (%rsp)
	movl	%eax, %r9d
	movl	$.LC3, %r8d
	movl	$.LC6, %ecx
	movl	$__func__.27211, %edx
	movl	$678, %esi
	movl	$1140850689, %edi
	movl	$0, %eax
	call	PetscError
	jmp	.L407
.L419:
	.loc 4 679 0
	leaq	-264(%rbp), %rdx
	movq	-296(%rbp), %rax
	movq	%rdx, %rsi
	movq	%rax, %rdi
	call	VecRestoreArray
	movl	%eax, -84(%rbp)
	cmpl	$0, -84(%rbp)
	setne	%al
	movzbl	%al, %eax
	testq	%rax, %rax
	je	.L420
	movl	-84(%rbp), %eax
	movq	$.LC5, 8(%rsp)
	movl	$1, (%rsp)
	movl	%eax, %r9d
	movl	$.LC3, %r8d
	movl	$.LC6, %ecx
	movl	$__func__.27211, %edx
	movl	$679, %esi
	movl	$1140850689, %edi
	movl	$0, %eax
	call	PetscError
	jmp	.L407
.L420:
	.loc 4 680 0
	movq	-248(%rbp), %rax
	movl	128(%rax), %eax
	vcvtsi2sd	%eax, %xmm0, %xmm0
	vmovsd	.LC26(%rip), %xmm1
	vmulsd	%xmm1, %xmm0, %xmm1
	vcvtsi2sd	-24(%rbp), %xmm0, %xmm0
	vmovsd	.LC27(%rip), %xmm2
	vmulsd	%xmm2, %xmm0, %xmm0
	vaddsd	%xmm0, %xmm1, %xmm0
	vmovsd	_TotalFlops(%rip), %xmm1
	vaddsd	%xmm1, %xmm0, %xmm0
	vmovsd	%xmm0, _TotalFlops(%rip)
	movl	$0, -84(%rbp)
	cmpl	$0, -84(%rbp)
	setne	%al
	movzbl	%al, %eax
	testq	%rax, %rax
	je	.L421
	movl	-84(%rbp), %eax
	movq	$.LC5, 8(%rsp)
	movl	$1, (%rsp)
	movl	%eax, %r9d
	movl	$.LC3, %r8d
	movl	$.LC6, %ecx
	movl	$__func__.27211, %edx
	movl	$680, %esi
	movl	$1140850689, %edi
	movl	$0, %eax
	call	PetscError
	jmp	.L407
.L421:
	.loc 4 681 0
	movq	petscstack(%rip), %rax
	testq	%rax, %rax
	je	.L422
	movq	petscstack(%rip), %rax
	movl	1792(%rax), %eax
	testl	%eax, %eax
	jle	.L422
	movq	petscstack(%rip), %rax
	movl	1792(%rax), %edx
	subl	$1, %edx
	movl	%edx, 1792(%rax)
	movq	petscstack(%rip), %rax
	movq	petscstack(%rip), %rdx
	movl	1792(%rdx), %edx
	movslq	%edx, %rdx
	movq	$0, (%rax,%rdx,8)
	movq	petscstack(%rip), %rax
	movq	petscstack(%rip), %rdx
	movl	1792(%rdx), %edx
	movslq	%edx, %rdx
	addq	$64, %rdx
	movq	$0, (%rax,%rdx,8)
	movq	petscstack(%rip), %rax
	movq	petscstack(%rip), %rdx
	movl	1792(%rdx), %edx
	movslq	%edx, %rdx
	subq	$-128, %rdx
	movq	$0, (%rax,%rdx,8)
	movq	petscstack(%rip), %rax
	movq	petscstack(%rip), %rdx
	movl	1792(%rdx), %edx
	movslq	%edx, %rdx
	addq	$384, %rdx
	movl	$0, (%rax,%rdx,4)
.L422:
	movl	$0, %eax
.L407:
	.loc 4 682 0
	addq	$312, %rsp
	popq	%rbx
	leave
	.cfi_def_cfa 7, 8
	ret
	.cfi_endproc
.LFE73:
	.size	MatMult_SeqBAIJ_15_ver1, .-MatMult_SeqBAIJ_15_ver1
.globl MatMult_SeqBAIJ_15_ver2
	.type	MatMult_SeqBAIJ_15_ver2, @function
MatMult_SeqBAIJ_15_ver2:
.LFB74:
	.loc 4 688 0
	.cfi_startproc
	pushq	%rbp
	.cfi_def_cfa_offset 16
	.cfi_offset 6, -16
	movq	%rsp, %rbp
	.cfi_def_cfa_register 6
	pushq	%rbx
	subq	$328, %rsp
	movq	%rdi, -296(%rbp)
	movq	%rsi, -304(%rbp)
	movq	%rdx, -312(%rbp)
	.loc 4 689 0
	movq	-296(%rbp), %rax
	movq	472(%rax), %rax
	movq	%rax, -264(%rbp)
	.loc 4 690 0
	movq	$0, -256(%rbp)
	.loc 4 695 0
	movq	-264(%rbp), %rax
	movq	144(%rax), %rax
	movq	%rax, -64(%rbp)
	.loc 4 696 0
	movq	$0, -32(%rbp)
	movl	$0, -24(%rbp)
	.loc 4 697 0
	movq	-264(%rbp), %rax
	movl	100(%rax), %eax
	movl	%eax, -20(%rbp)
	.loc 4 699 0
	movq	petscstack(%rip), %rax
	testq	%rax, %rax
	je	.L446
	.cfi_offset 3, -24
	movq	petscstack(%rip), %rax
	movl	1792(%rax), %eax
	cmpl	$63, %eax
	jg	.L447
	movq	petscstack(%rip), %rax
	movq	petscstack(%rip), %rdx
	movl	1792(%rdx), %edx
	movslq	%edx, %rdx
	movq	$__func__.27446, (%rax,%rdx,8)
	movq	petscstack(%rip), %rax
	movq	petscstack(%rip), %rdx
	movl	1792(%rdx), %edx
	movslq	%edx, %rdx
	addq	$64, %rdx
	movq	$.LC6, (%rax,%rdx,8)
	movq	petscstack(%rip), %rax
	movq	petscstack(%rip), %rdx
	movl	1792(%rdx), %edx
	movslq	%edx, %rdx
	subq	$-128, %rdx
	movq	$.LC3, (%rax,%rdx,8)
	movq	petscstack(%rip), %rax
	movq	petscstack(%rip), %rdx
	movl	1792(%rdx), %edx
	movslq	%edx, %rdx
	addq	$384, %rdx
	movl	$699, (%rax,%rdx,4)
	movq	petscstack(%rip), %rax
	movl	1792(%rax), %edx
	addl	$1, %edx
	movl	%edx, 1792(%rax)
	jmp	.L445
.L446:
	nop
	jmp	.L445
.L447:
	nop
.L445:
	.loc 4 700 0
	leaq	-272(%rbp), %rdx
	movq	-304(%rbp), %rax
	movq	%rdx, %rsi
	movq	%rax, %rdi
	call	VecGetArrayRead
	movl	%eax, -76(%rbp)
	cmpl	$0, -76(%rbp)
	setne	%al
	movzbl	%al, %eax
	testq	%rax, %rax
	je	.L429
	movl	-76(%rbp), %eax
	movq	$.LC5, 8(%rsp)
	movl	$1, (%rsp)
	movl	%eax, %r9d
	movl	$.LC3, %r8d
	movl	$.LC6, %ecx
	movl	$__func__.27446, %edx
	movl	$700, %esi
	movl	$1140850689, %edi
	movl	$0, %eax
	call	PetscError
	jmp	.L430
.L429:
	.loc 4 701 0
	leaq	-280(%rbp), %rdx
	movq	-312(%rbp), %rax
	movq	%rdx, %rsi
	movq	%rax, %rdi
	call	VecGetArray
	movl	%eax, -76(%rbp)
	cmpl	$0, -76(%rbp)
	setne	%al
	movzbl	%al, %eax
	testq	%rax, %rax
	je	.L431
	movl	-76(%rbp), %eax
	movq	$.LC5, 8(%rsp)
	movl	$1, (%rsp)
	movl	%eax, %r9d
	movl	$.LC3, %r8d
	movl	$.LC6, %ecx
	movl	$__func__.27446, %edx
	movl	$701, %esi
	movl	$1140850689, %edi
	movl	$0, %eax
	call	PetscError
	jmp	.L430
.L431:
	.loc 4 703 0
	movq	-264(%rbp), %rax
	movq	168(%rax), %rax
	movq	%rax, -88(%rbp)
	.loc 4 704 0
	cmpl	$0, -20(%rbp)
	je	.L432
	.loc 4 705 0
	movq	-264(%rbp), %rax
	movl	104(%rax), %eax
	movl	%eax, -48(%rbp)
	.loc 4 706 0
	movq	-264(%rbp), %rax
	movq	112(%rax), %rax
	movq	%rax, -72(%rbp)
	.loc 4 707 0
	movq	-264(%rbp), %rax
	movq	120(%rax), %rax
	movq	%rax, -32(%rbp)
	jmp	.L433
.L432:
	.loc 4 709 0
	movq	-264(%rbp), %rax
	movl	228(%rax), %eax
	movl	%eax, -48(%rbp)
	.loc 4 710 0
	movq	-264(%rbp), %rax
	movq	136(%rax), %rax
	movq	%rax, -72(%rbp)
	.loc 4 711 0
	movq	-280(%rbp), %rax
	movq	%rax, -256(%rbp)
.L433:
	.loc 4 714 0
	movl	$0, -44(%rbp)
	jmp	.L434
.L439:
	.loc 4 715 0
	movl	-44(%rbp), %eax
	cltq
	addq	$1, %rax
	salq	$2, %rax
	addq	-72(%rbp), %rax
	movl	(%rax), %edx
	movl	-44(%rbp), %eax
	cltq
	salq	$2, %rax
	addq	-72(%rbp), %rax
	movl	(%rax), %eax
	movl	%edx, %ecx
	subl	%eax, %ecx
	movl	%ecx, %eax
	movl	%eax, -36(%rbp)
	.loc 4 716 0
	movl	-44(%rbp), %eax
	cltq
	salq	$2, %rax
	addq	-72(%rbp), %rax
	movl	(%rax), %eax
	cltq
	salq	$2, %rax
	addq	-64(%rbp), %rax
	movq	%rax, -56(%rbp)
	.loc 4 717 0
	movl	$0, %eax
	movq	%rax, -248(%rbp)
	movl	$0, %eax
	movq	%rax, -240(%rbp)
	movl	$0, %eax
	movq	%rax, -232(%rbp)
	movl	$0, %eax
	movq	%rax, -224(%rbp)
	movl	$0, %eax
	movq	%rax, -216(%rbp)
	movl	$0, %eax
	movq	%rax, -208(%rbp)
	movl	$0, %eax
	movq	%rax, -200(%rbp)
	.loc 4 718 0
	movl	$0, %eax
	movq	%rax, -192(%rbp)
	movl	$0, %eax
	movq	%rax, -184(%rbp)
	movl	$0, %eax
	movq	%rax, -176(%rbp)
	movl	$0, %eax
	movq	%rax, -168(%rbp)
	movl	$0, %eax
	movq	%rax, -160(%rbp)
	movl	$0, %eax
	movq	%rax, -152(%rbp)
	movl	$0, %eax
	movq	%rax, -144(%rbp)
	movl	$0, %eax
	movq	%rax, -136(%rbp)
	.loc 4 720 0
	cmpl	$0, -36(%rbp)
	setg	%al
	movzbl	%al, %eax
	addl	%eax, -24(%rbp)
	.loc 4 721 0
	movl	$0, -40(%rbp)
	jmp	.L435
.L436:
	.loc 4 722 0
	movq	-272(%rbp), %rdx
	movl	-40(%rbp), %eax
	cltq
	salq	$2, %rax
	addq	-56(%rbp), %rax
	movl	(%rax), %eax
	cltq
	salq	$3, %rax
	movq	%rax, %rcx
	salq	$4, %rcx
	movq	%rcx, %rbx
	subq	%rax, %rbx
	movq	%rbx, %rax
	leaq	(%rdx,%rax), %rax
	movq	%rax, -128(%rbp)
	.loc 4 723 0
	movq	-128(%rbp), %rax
	movq	(%rax), %rax
	movq	%rax, -120(%rbp)
	movq	-128(%rbp), %rax
	addq	$8, %rax
	movq	(%rax), %rax
	movq	%rax, -112(%rbp)
	movq	-128(%rbp), %rax
	addq	$16, %rax
	movq	(%rax), %rax
	movq	%rax, -104(%rbp)
	movq	-128(%rbp), %rax
	addq	$24, %rax
	movq	(%rax), %rax
	movq	%rax, -96(%rbp)
	.loc 4 725 0
	movq	-88(%rbp), %rax
	vmovsd	(%rax), %xmm0
	vmulsd	-120(%rbp), %xmm0, %xmm1
	movq	-88(%rbp), %rax
	addq	$120, %rax
	vmovsd	(%rax), %xmm0
	vmulsd	-112(%rbp), %xmm0, %xmm0
	vaddsd	%xmm0, %xmm1, %xmm1
	movq	-88(%rbp), %rax
	addq	$240, %rax
	vmovsd	(%rax), %xmm0
	vmulsd	-104(%rbp), %xmm0, %xmm0
	vaddsd	%xmm0, %xmm1, %xmm1
	movq	-88(%rbp), %rax
	addq	$360, %rax
	vmovsd	(%rax), %xmm0
	vmulsd	-96(%rbp), %xmm0, %xmm0
	vaddsd	%xmm0, %xmm1, %xmm0
	vmovsd	-248(%rbp), %xmm1
	vaddsd	%xmm0, %xmm1, %xmm0
	vmovsd	%xmm0, -248(%rbp)
	.loc 4 726 0
	movq	-88(%rbp), %rax
	addq	$8, %rax
	vmovsd	(%rax), %xmm0
	vmulsd	-120(%rbp), %xmm0, %xmm1
	movq	-88(%rbp), %rax
	subq	$-128, %rax
	vmovsd	(%rax), %xmm0
	vmulsd	-112(%rbp), %xmm0, %xmm0
	vaddsd	%xmm0, %xmm1, %xmm1
	movq	-88(%rbp), %rax
	addq	$248, %rax
	vmovsd	(%rax), %xmm0
	vmulsd	-104(%rbp), %xmm0, %xmm0
	vaddsd	%xmm0, %xmm1, %xmm1
	movq	-88(%rbp), %rax
	addq	$368, %rax
	vmovsd	(%rax), %xmm0
	vmulsd	-96(%rbp), %xmm0, %xmm0
	vaddsd	%xmm0, %xmm1, %xmm0
	vmovsd	-240(%rbp), %xmm1
	vaddsd	%xmm0, %xmm1, %xmm0
	vmovsd	%xmm0, -240(%rbp)
	.loc 4 727 0
	movq	-88(%rbp), %rax
	addq	$16, %rax
	vmovsd	(%rax), %xmm0
	vmulsd	-120(%rbp), %xmm0, %xmm1
	movq	-88(%rbp), %rax
	addq	$136, %rax
	vmovsd	(%rax), %xmm0
	vmulsd	-112(%rbp), %xmm0, %xmm0
	vaddsd	%xmm0, %xmm1, %xmm1
	movq	-88(%rbp), %rax
	addq	$256, %rax
	vmovsd	(%rax), %xmm0
	vmulsd	-104(%rbp), %xmm0, %xmm0
	vaddsd	%xmm0, %xmm1, %xmm1
	movq	-88(%rbp), %rax
	addq	$376, %rax
	vmovsd	(%rax), %xmm0
	vmulsd	-96(%rbp), %xmm0, %xmm0
	vaddsd	%xmm0, %xmm1, %xmm0
	vmovsd	-232(%rbp), %xmm1
	vaddsd	%xmm0, %xmm1, %xmm0
	vmovsd	%xmm0, -232(%rbp)
	.loc 4 728 0
	movq	-88(%rbp), %rax
	addq	$24, %rax
	vmovsd	(%rax), %xmm0
	vmulsd	-120(%rbp), %xmm0, %xmm1
	movq	-88(%rbp), %rax
	addq	$144, %rax
	vmovsd	(%rax), %xmm0
	vmulsd	-112(%rbp), %xmm0, %xmm0
	vaddsd	%xmm0, %xmm1, %xmm1
	movq	-88(%rbp), %rax
	addq	$264, %rax
	vmovsd	(%rax), %xmm0
	vmulsd	-104(%rbp), %xmm0, %xmm0
	vaddsd	%xmm0, %xmm1, %xmm1
	movq	-88(%rbp), %rax
	addq	$384, %rax
	vmovsd	(%rax), %xmm0
	vmulsd	-96(%rbp), %xmm0, %xmm0
	vaddsd	%xmm0, %xmm1, %xmm0
	vmovsd	-224(%rbp), %xmm1
	vaddsd	%xmm0, %xmm1, %xmm0
	vmovsd	%xmm0, -224(%rbp)
	.loc 4 729 0
	movq	-88(%rbp), %rax
	addq	$32, %rax
	vmovsd	(%rax), %xmm0
	vmulsd	-120(%rbp), %xmm0, %xmm1
	movq	-88(%rbp), %rax
	addq	$152, %rax
	vmovsd	(%rax), %xmm0
	vmulsd	-112(%rbp), %xmm0, %xmm0
	vaddsd	%xmm0, %xmm1, %xmm1
	movq	-88(%rbp), %rax
	addq	$272, %rax
	vmovsd	(%rax), %xmm0
	vmulsd	-104(%rbp), %xmm0, %xmm0
	vaddsd	%xmm0, %xmm1, %xmm1
	movq	-88(%rbp), %rax
	addq	$392, %rax
	vmovsd	(%rax), %xmm0
	vmulsd	-96(%rbp), %xmm0, %xmm0
	vaddsd	%xmm0, %xmm1, %xmm0
	vmovsd	-216(%rbp), %xmm1
	vaddsd	%xmm0, %xmm1, %xmm0
	vmovsd	%xmm0, -216(%rbp)
	.loc 4 730 0
	movq	-88(%rbp), %rax
	addq	$40, %rax
	vmovsd	(%rax), %xmm0
	vmulsd	-120(%rbp), %xmm0, %xmm1
	movq	-88(%rbp), %rax
	addq	$160, %rax
	vmovsd	(%rax), %xmm0
	vmulsd	-112(%rbp), %xmm0, %xmm0
	vaddsd	%xmm0, %xmm1, %xmm1
	movq	-88(%rbp), %rax
	addq	$280, %rax
	vmovsd	(%rax), %xmm0
	vmulsd	-104(%rbp), %xmm0, %xmm0
	vaddsd	%xmm0, %xmm1, %xmm1
	movq	-88(%rbp), %rax
	addq	$400, %rax
	vmovsd	(%rax), %xmm0
	vmulsd	-96(%rbp), %xmm0, %xmm0
	vaddsd	%xmm0, %xmm1, %xmm0
	vmovsd	-208(%rbp), %xmm1
	vaddsd	%xmm0, %xmm1, %xmm0
	vmovsd	%xmm0, -208(%rbp)
	.loc 4 731 0
	movq	-88(%rbp), %rax
	addq	$48, %rax
	vmovsd	(%rax), %xmm0
	vmulsd	-120(%rbp), %xmm0, %xmm1
	movq	-88(%rbp), %rax
	addq	$168, %rax
	vmovsd	(%rax), %xmm0
	vmulsd	-112(%rbp), %xmm0, %xmm0
	vaddsd	%xmm0, %xmm1, %xmm1
	movq	-88(%rbp), %rax
	addq	$288, %rax
	vmovsd	(%rax), %xmm0
	vmulsd	-104(%rbp), %xmm0, %xmm0
	vaddsd	%xmm0, %xmm1, %xmm1
	movq	-88(%rbp), %rax
	addq	$408, %rax
	vmovsd	(%rax), %xmm0
	vmulsd	-96(%rbp), %xmm0, %xmm0
	vaddsd	%xmm0, %xmm1, %xmm0
	vmovsd	-200(%rbp), %xmm1
	vaddsd	%xmm0, %xmm1, %xmm0
	vmovsd	%xmm0, -200(%rbp)
	.loc 4 732 0
	movq	-88(%rbp), %rax
	addq	$56, %rax
	vmovsd	(%rax), %xmm0
	vmulsd	-120(%rbp), %xmm0, %xmm1
	movq	-88(%rbp), %rax
	addq	$176, %rax
	vmovsd	(%rax), %xmm0
	vmulsd	-112(%rbp), %xmm0, %xmm0
	vaddsd	%xmm0, %xmm1, %xmm1
	movq	-88(%rbp), %rax
	addq	$296, %rax
	vmovsd	(%rax), %xmm0
	vmulsd	-104(%rbp), %xmm0, %xmm0
	vaddsd	%xmm0, %xmm1, %xmm1
	movq	-88(%rbp), %rax
	addq	$416, %rax
	vmovsd	(%rax), %xmm0
	vmulsd	-96(%rbp), %xmm0, %xmm0
	vaddsd	%xmm0, %xmm1, %xmm0
	vmovsd	-192(%rbp), %xmm1
	vaddsd	%xmm0, %xmm1, %xmm0
	vmovsd	%xmm0, -192(%rbp)
	.loc 4 733 0
	movq	-88(%rbp), %rax
	addq	$64, %rax
	vmovsd	(%rax), %xmm0
	vmulsd	-120(%rbp), %xmm0, %xmm1
	movq	-88(%rbp), %rax
	addq	$184, %rax
	vmovsd	(%rax), %xmm0
	vmulsd	-112(%rbp), %xmm0, %xmm0
	vaddsd	%xmm0, %xmm1, %xmm1
	movq	-88(%rbp), %rax
	addq	$304, %rax
	vmovsd	(%rax), %xmm0
	vmulsd	-104(%rbp), %xmm0, %xmm0
	vaddsd	%xmm0, %xmm1, %xmm1
	movq	-88(%rbp), %rax
	addq	$424, %rax
	vmovsd	(%rax), %xmm0
	vmulsd	-96(%rbp), %xmm0, %xmm0
	vaddsd	%xmm0, %xmm1, %xmm0
	vmovsd	-184(%rbp), %xmm1
	vaddsd	%xmm0, %xmm1, %xmm0
	vmovsd	%xmm0, -184(%rbp)
	.loc 4 734 0
	movq	-88(%rbp), %rax
	addq	$72, %rax
	vmovsd	(%rax), %xmm0
	vmulsd	-120(%rbp), %xmm0, %xmm1
	movq	-88(%rbp), %rax
	addq	$192, %rax
	vmovsd	(%rax), %xmm0
	vmulsd	-112(%rbp), %xmm0, %xmm0
	vaddsd	%xmm0, %xmm1, %xmm1
	movq	-88(%rbp), %rax
	addq	$312, %rax
	vmovsd	(%rax), %xmm0
	vmulsd	-104(%rbp), %xmm0, %xmm0
	vaddsd	%xmm0, %xmm1, %xmm1
	movq	-88(%rbp), %rax
	addq	$432, %rax
	vmovsd	(%rax), %xmm0
	vmulsd	-96(%rbp), %xmm0, %xmm0
	vaddsd	%xmm0, %xmm1, %xmm0
	vmovsd	-176(%rbp), %xmm1
	vaddsd	%xmm0, %xmm1, %xmm0
	vmovsd	%xmm0, -176(%rbp)
	.loc 4 735 0
	movq	-88(%rbp), %rax
	addq	$80, %rax
	vmovsd	(%rax), %xmm0
	vmulsd	-120(%rbp), %xmm0, %xmm1
	movq	-88(%rbp), %rax
	addq	$200, %rax
	vmovsd	(%rax), %xmm0
	vmulsd	-112(%rbp), %xmm0, %xmm0
	vaddsd	%xmm0, %xmm1, %xmm1
	movq	-88(%rbp), %rax
	addq	$320, %rax
	vmovsd	(%rax), %xmm0
	vmulsd	-104(%rbp), %xmm0, %xmm0
	vaddsd	%xmm0, %xmm1, %xmm1
	movq	-88(%rbp), %rax
	addq	$440, %rax
	vmovsd	(%rax), %xmm0
	vmulsd	-96(%rbp), %xmm0, %xmm0
	vaddsd	%xmm0, %xmm1, %xmm0
	vmovsd	-168(%rbp), %xmm1
	vaddsd	%xmm0, %xmm1, %xmm0
	vmovsd	%xmm0, -168(%rbp)
	.loc 4 736 0
	movq	-88(%rbp), %rax
	addq	$88, %rax
	vmovsd	(%rax), %xmm0
	vmulsd	-120(%rbp), %xmm0, %xmm1
	movq	-88(%rbp), %rax
	addq	$208, %rax
	vmovsd	(%rax), %xmm0
	vmulsd	-112(%rbp), %xmm0, %xmm0
	vaddsd	%xmm0, %xmm1, %xmm1
	movq	-88(%rbp), %rax
	addq	$328, %rax
	vmovsd	(%rax), %xmm0
	vmulsd	-104(%rbp), %xmm0, %xmm0
	vaddsd	%xmm0, %xmm1, %xmm1
	movq	-88(%rbp), %rax
	addq	$448, %rax
	vmovsd	(%rax), %xmm0
	vmulsd	-96(%rbp), %xmm0, %xmm0
	vaddsd	%xmm0, %xmm1, %xmm0
	vmovsd	-160(%rbp), %xmm1
	vaddsd	%xmm0, %xmm1, %xmm0
	vmovsd	%xmm0, -160(%rbp)
	.loc 4 737 0
	movq	-88(%rbp), %rax
	addq	$96, %rax
	vmovsd	(%rax), %xmm0
	vmulsd	-120(%rbp), %xmm0, %xmm1
	movq	-88(%rbp), %rax
	addq	$216, %rax
	vmovsd	(%rax), %xmm0
	vmulsd	-112(%rbp), %xmm0, %xmm0
	vaddsd	%xmm0, %xmm1, %xmm1
	movq	-88(%rbp), %rax
	addq	$336, %rax
	vmovsd	(%rax), %xmm0
	vmulsd	-104(%rbp), %xmm0, %xmm0
	vaddsd	%xmm0, %xmm1, %xmm1
	movq	-88(%rbp), %rax
	addq	$456, %rax
	vmovsd	(%rax), %xmm0
	vmulsd	-96(%rbp), %xmm0, %xmm0
	vaddsd	%xmm0, %xmm1, %xmm0
	vmovsd	-152(%rbp), %xmm1
	vaddsd	%xmm0, %xmm1, %xmm0
	vmovsd	%xmm0, -152(%rbp)
	.loc 4 738 0
	movq	-88(%rbp), %rax
	addq	$104, %rax
	vmovsd	(%rax), %xmm0
	vmulsd	-120(%rbp), %xmm0, %xmm1
	movq	-88(%rbp), %rax
	addq	$224, %rax
	vmovsd	(%rax), %xmm0
	vmulsd	-112(%rbp), %xmm0, %xmm0
	vaddsd	%xmm0, %xmm1, %xmm1
	movq	-88(%rbp), %rax
	addq	$344, %rax
	vmovsd	(%rax), %xmm0
	vmulsd	-104(%rbp), %xmm0, %xmm0
	vaddsd	%xmm0, %xmm1, %xmm1
	movq	-88(%rbp), %rax
	addq	$464, %rax
	vmovsd	(%rax), %xmm0
	vmulsd	-96(%rbp), %xmm0, %xmm0
	vaddsd	%xmm0, %xmm1, %xmm0
	vmovsd	-144(%rbp), %xmm1
	vaddsd	%xmm0, %xmm1, %xmm0
	vmovsd	%xmm0, -144(%rbp)
	.loc 4 739 0
	movq	-88(%rbp), %rax
	addq	$112, %rax
	vmovsd	(%rax), %xmm0
	vmulsd	-120(%rbp), %xmm0, %xmm1
	movq	-88(%rbp), %rax
	addq	$232, %rax
	vmovsd	(%rax), %xmm0
	vmulsd	-112(%rbp), %xmm0, %xmm0
	vaddsd	%xmm0, %xmm1, %xmm1
	movq	-88(%rbp), %rax
	addq	$352, %rax
	vmovsd	(%rax), %xmm0
	vmulsd	-104(%rbp), %xmm0, %xmm0
	vaddsd	%xmm0, %xmm1, %xmm1
	movq	-88(%rbp), %rax
	addq	$472, %rax
	vmovsd	(%rax), %xmm0
	vmulsd	-96(%rbp), %xmm0, %xmm0
	vaddsd	%xmm0, %xmm1, %xmm0
	vmovsd	-136(%rbp), %xmm1
	vaddsd	%xmm0, %xmm1, %xmm0
	vmovsd	%xmm0, -136(%rbp)
	.loc 4 741 0
	addq	$480, -88(%rbp)
	.loc 4 743 0
	movq	-128(%rbp), %rax
	addq	$32, %rax
	movq	(%rax), %rax
	movq	%rax, -120(%rbp)
	movq	-128(%rbp), %rax
	addq	$40, %rax
	movq	(%rax), %rax
	movq	%rax, -112(%rbp)
	movq	-128(%rbp), %rax
	addq	$48, %rax
	movq	(%rax), %rax
	movq	%rax, -104(%rbp)
	movq	-128(%rbp), %rax
	addq	$56, %rax
	movq	(%rax), %rax
	movq	%rax, -96(%rbp)
	.loc 4 745 0
	movq	-88(%rbp), %rax
	vmovsd	(%rax), %xmm0
	vmulsd	-120(%rbp), %xmm0, %xmm1
	movq	-88(%rbp), %rax
	addq	$120, %rax
	vmovsd	(%rax), %xmm0
	vmulsd	-112(%rbp), %xmm0, %xmm0
	vaddsd	%xmm0, %xmm1, %xmm1
	movq	-88(%rbp), %rax
	addq	$240, %rax
	vmovsd	(%rax), %xmm0
	vmulsd	-104(%rbp), %xmm0, %xmm0
	vaddsd	%xmm0, %xmm1, %xmm1
	movq	-88(%rbp), %rax
	addq	$360, %rax
	vmovsd	(%rax), %xmm0
	vmulsd	-96(%rbp), %xmm0, %xmm0
	vaddsd	%xmm0, %xmm1, %xmm0
	vmovsd	-248(%rbp), %xmm1
	vaddsd	%xmm0, %xmm1, %xmm0
	vmovsd	%xmm0, -248(%rbp)
	.loc 4 746 0
	movq	-88(%rbp), %rax
	addq	$8, %rax
	vmovsd	(%rax), %xmm0
	vmulsd	-120(%rbp), %xmm0, %xmm1
	movq	-88(%rbp), %rax
	subq	$-128, %rax
	vmovsd	(%rax), %xmm0
	vmulsd	-112(%rbp), %xmm0, %xmm0
	vaddsd	%xmm0, %xmm1, %xmm1
	movq	-88(%rbp), %rax
	addq	$248, %rax
	vmovsd	(%rax), %xmm0
	vmulsd	-104(%rbp), %xmm0, %xmm0
	vaddsd	%xmm0, %xmm1, %xmm1
	movq	-88(%rbp), %rax
	addq	$368, %rax
	vmovsd	(%rax), %xmm0
	vmulsd	-96(%rbp), %xmm0, %xmm0
	vaddsd	%xmm0, %xmm1, %xmm0
	vmovsd	-240(%rbp), %xmm1
	vaddsd	%xmm0, %xmm1, %xmm0
	vmovsd	%xmm0, -240(%rbp)
	.loc 4 747 0
	movq	-88(%rbp), %rax
	addq	$16, %rax
	vmovsd	(%rax), %xmm0
	vmulsd	-120(%rbp), %xmm0, %xmm1
	movq	-88(%rbp), %rax
	addq	$136, %rax
	vmovsd	(%rax), %xmm0
	vmulsd	-112(%rbp), %xmm0, %xmm0
	vaddsd	%xmm0, %xmm1, %xmm1
	movq	-88(%rbp), %rax
	addq	$256, %rax
	vmovsd	(%rax), %xmm0
	vmulsd	-104(%rbp), %xmm0, %xmm0
	vaddsd	%xmm0, %xmm1, %xmm1
	movq	-88(%rbp), %rax
	addq	$376, %rax
	vmovsd	(%rax), %xmm0
	vmulsd	-96(%rbp), %xmm0, %xmm0
	vaddsd	%xmm0, %xmm1, %xmm0
	vmovsd	-232(%rbp), %xmm1
	vaddsd	%xmm0, %xmm1, %xmm0
	vmovsd	%xmm0, -232(%rbp)
	.loc 4 748 0
	movq	-88(%rbp), %rax
	addq	$24, %rax
	vmovsd	(%rax), %xmm0
	vmulsd	-120(%rbp), %xmm0, %xmm1
	movq	-88(%rbp), %rax
	addq	$144, %rax
	vmovsd	(%rax), %xmm0
	vmulsd	-112(%rbp), %xmm0, %xmm0
	vaddsd	%xmm0, %xmm1, %xmm1
	movq	-88(%rbp), %rax
	addq	$264, %rax
	vmovsd	(%rax), %xmm0
	vmulsd	-104(%rbp), %xmm0, %xmm0
	vaddsd	%xmm0, %xmm1, %xmm1
	movq	-88(%rbp), %rax
	addq	$384, %rax
	vmovsd	(%rax), %xmm0
	vmulsd	-96(%rbp), %xmm0, %xmm0
	vaddsd	%xmm0, %xmm1, %xmm0
	vmovsd	-224(%rbp), %xmm1
	vaddsd	%xmm0, %xmm1, %xmm0
	vmovsd	%xmm0, -224(%rbp)
	.loc 4 749 0
	movq	-88(%rbp), %rax
	addq	$32, %rax
	vmovsd	(%rax), %xmm0
	vmulsd	-120(%rbp), %xmm0, %xmm1
	movq	-88(%rbp), %rax
	addq	$152, %rax
	vmovsd	(%rax), %xmm0
	vmulsd	-112(%rbp), %xmm0, %xmm0
	vaddsd	%xmm0, %xmm1, %xmm1
	movq	-88(%rbp), %rax
	addq	$272, %rax
	vmovsd	(%rax), %xmm0
	vmulsd	-104(%rbp), %xmm0, %xmm0
	vaddsd	%xmm0, %xmm1, %xmm1
	movq	-88(%rbp), %rax
	addq	$392, %rax
	vmovsd	(%rax), %xmm0
	vmulsd	-96(%rbp), %xmm0, %xmm0
	vaddsd	%xmm0, %xmm1, %xmm0
	vmovsd	-216(%rbp), %xmm1
	vaddsd	%xmm0, %xmm1, %xmm0
	vmovsd	%xmm0, -216(%rbp)
	.loc 4 750 0
	movq	-88(%rbp), %rax
	addq	$40, %rax
	vmovsd	(%rax), %xmm0
	vmulsd	-120(%rbp), %xmm0, %xmm1
	movq	-88(%rbp), %rax
	addq	$160, %rax
	vmovsd	(%rax), %xmm0
	vmulsd	-112(%rbp), %xmm0, %xmm0
	vaddsd	%xmm0, %xmm1, %xmm1
	movq	-88(%rbp), %rax
	addq	$280, %rax
	vmovsd	(%rax), %xmm0
	vmulsd	-104(%rbp), %xmm0, %xmm0
	vaddsd	%xmm0, %xmm1, %xmm1
	movq	-88(%rbp), %rax
	addq	$400, %rax
	vmovsd	(%rax), %xmm0
	vmulsd	-96(%rbp), %xmm0, %xmm0
	vaddsd	%xmm0, %xmm1, %xmm0
	vmovsd	-208(%rbp), %xmm1
	vaddsd	%xmm0, %xmm1, %xmm0
	vmovsd	%xmm0, -208(%rbp)
	.loc 4 751 0
	movq	-88(%rbp), %rax
	addq	$48, %rax
	vmovsd	(%rax), %xmm0
	vmulsd	-120(%rbp), %xmm0, %xmm1
	movq	-88(%rbp), %rax
	addq	$168, %rax
	vmovsd	(%rax), %xmm0
	vmulsd	-112(%rbp), %xmm0, %xmm0
	vaddsd	%xmm0, %xmm1, %xmm1
	movq	-88(%rbp), %rax
	addq	$288, %rax
	vmovsd	(%rax), %xmm0
	vmulsd	-104(%rbp), %xmm0, %xmm0
	vaddsd	%xmm0, %xmm1, %xmm1
	movq	-88(%rbp), %rax
	addq	$408, %rax
	vmovsd	(%rax), %xmm0
	vmulsd	-96(%rbp), %xmm0, %xmm0
	vaddsd	%xmm0, %xmm1, %xmm0
	vmovsd	-200(%rbp), %xmm1
	vaddsd	%xmm0, %xmm1, %xmm0
	vmovsd	%xmm0, -200(%rbp)
	.loc 4 752 0
	movq	-88(%rbp), %rax
	addq	$56, %rax
	vmovsd	(%rax), %xmm0
	vmulsd	-120(%rbp), %xmm0, %xmm1
	movq	-88(%rbp), %rax
	addq	$176, %rax
	vmovsd	(%rax), %xmm0
	vmulsd	-112(%rbp), %xmm0, %xmm0
	vaddsd	%xmm0, %xmm1, %xmm1
	movq	-88(%rbp), %rax
	addq	$296, %rax
	vmovsd	(%rax), %xmm0
	vmulsd	-104(%rbp), %xmm0, %xmm0
	vaddsd	%xmm0, %xmm1, %xmm1
	movq	-88(%rbp), %rax
	addq	$416, %rax
	vmovsd	(%rax), %xmm0
	vmulsd	-96(%rbp), %xmm0, %xmm0
	vaddsd	%xmm0, %xmm1, %xmm0
	vmovsd	-192(%rbp), %xmm1
	vaddsd	%xmm0, %xmm1, %xmm0
	vmovsd	%xmm0, -192(%rbp)
	.loc 4 753 0
	movq	-88(%rbp), %rax
	addq	$64, %rax
	vmovsd	(%rax), %xmm0
	vmulsd	-120(%rbp), %xmm0, %xmm1
	movq	-88(%rbp), %rax
	addq	$184, %rax
	vmovsd	(%rax), %xmm0
	vmulsd	-112(%rbp), %xmm0, %xmm0
	vaddsd	%xmm0, %xmm1, %xmm1
	movq	-88(%rbp), %rax
	addq	$304, %rax
	vmovsd	(%rax), %xmm0
	vmulsd	-104(%rbp), %xmm0, %xmm0
	vaddsd	%xmm0, %xmm1, %xmm1
	movq	-88(%rbp), %rax
	addq	$424, %rax
	vmovsd	(%rax), %xmm0
	vmulsd	-96(%rbp), %xmm0, %xmm0
	vaddsd	%xmm0, %xmm1, %xmm0
	vmovsd	-184(%rbp), %xmm1
	vaddsd	%xmm0, %xmm1, %xmm0
	vmovsd	%xmm0, -184(%rbp)
	.loc 4 754 0
	movq	-88(%rbp), %rax
	addq	$72, %rax
	vmovsd	(%rax), %xmm0
	vmulsd	-120(%rbp), %xmm0, %xmm1
	movq	-88(%rbp), %rax
	addq	$192, %rax
	vmovsd	(%rax), %xmm0
	vmulsd	-112(%rbp), %xmm0, %xmm0
	vaddsd	%xmm0, %xmm1, %xmm1
	movq	-88(%rbp), %rax
	addq	$312, %rax
	vmovsd	(%rax), %xmm0
	vmulsd	-104(%rbp), %xmm0, %xmm0
	vaddsd	%xmm0, %xmm1, %xmm1
	movq	-88(%rbp), %rax
	addq	$432, %rax
	vmovsd	(%rax), %xmm0
	vmulsd	-96(%rbp), %xmm0, %xmm0
	vaddsd	%xmm0, %xmm1, %xmm0
	vmovsd	-176(%rbp), %xmm1
	vaddsd	%xmm0, %xmm1, %xmm0
	vmovsd	%xmm0, -176(%rbp)
	.loc 4 755 0
	movq	-88(%rbp), %rax
	addq	$80, %rax
	vmovsd	(%rax), %xmm0
	vmulsd	-120(%rbp), %xmm0, %xmm1
	movq	-88(%rbp), %rax
	addq	$200, %rax
	vmovsd	(%rax), %xmm0
	vmulsd	-112(%rbp), %xmm0, %xmm0
	vaddsd	%xmm0, %xmm1, %xmm1
	movq	-88(%rbp), %rax
	addq	$320, %rax
	vmovsd	(%rax), %xmm0
	vmulsd	-104(%rbp), %xmm0, %xmm0
	vaddsd	%xmm0, %xmm1, %xmm1
	movq	-88(%rbp), %rax
	addq	$440, %rax
	vmovsd	(%rax), %xmm0
	vmulsd	-96(%rbp), %xmm0, %xmm0
	vaddsd	%xmm0, %xmm1, %xmm0
	vmovsd	-168(%rbp), %xmm1
	vaddsd	%xmm0, %xmm1, %xmm0
	vmovsd	%xmm0, -168(%rbp)
	.loc 4 756 0
	movq	-88(%rbp), %rax
	addq	$88, %rax
	vmovsd	(%rax), %xmm0
	vmulsd	-120(%rbp), %xmm0, %xmm1
	movq	-88(%rbp), %rax
	addq	$208, %rax
	vmovsd	(%rax), %xmm0
	vmulsd	-112(%rbp), %xmm0, %xmm0
	vaddsd	%xmm0, %xmm1, %xmm1
	movq	-88(%rbp), %rax
	addq	$328, %rax
	vmovsd	(%rax), %xmm0
	vmulsd	-104(%rbp), %xmm0, %xmm0
	vaddsd	%xmm0, %xmm1, %xmm1
	movq	-88(%rbp), %rax
	addq	$448, %rax
	vmovsd	(%rax), %xmm0
	vmulsd	-96(%rbp), %xmm0, %xmm0
	vaddsd	%xmm0, %xmm1, %xmm0
	vmovsd	-160(%rbp), %xmm1
	vaddsd	%xmm0, %xmm1, %xmm0
	vmovsd	%xmm0, -160(%rbp)
	.loc 4 757 0
	movq	-88(%rbp), %rax
	addq	$96, %rax
	vmovsd	(%rax), %xmm0
	vmulsd	-120(%rbp), %xmm0, %xmm1
	movq	-88(%rbp), %rax
	addq	$216, %rax
	vmovsd	(%rax), %xmm0
	vmulsd	-112(%rbp), %xmm0, %xmm0
	vaddsd	%xmm0, %xmm1, %xmm1
	movq	-88(%rbp), %rax
	addq	$336, %rax
	vmovsd	(%rax), %xmm0
	vmulsd	-104(%rbp), %xmm0, %xmm0
	vaddsd	%xmm0, %xmm1, %xmm1
	movq	-88(%rbp), %rax
	addq	$456, %rax
	vmovsd	(%rax), %xmm0
	vmulsd	-96(%rbp), %xmm0, %xmm0
	vaddsd	%xmm0, %xmm1, %xmm0
	vmovsd	-152(%rbp), %xmm1
	vaddsd	%xmm0, %xmm1, %xmm0
	vmovsd	%xmm0, -152(%rbp)
	.loc 4 758 0
	movq	-88(%rbp), %rax
	addq	$104, %rax
	vmovsd	(%rax), %xmm0
	vmulsd	-120(%rbp), %xmm0, %xmm1
	movq	-88(%rbp), %rax
	addq	$224, %rax
	vmovsd	(%rax), %xmm0
	vmulsd	-112(%rbp), %xmm0, %xmm0
	vaddsd	%xmm0, %xmm1, %xmm1
	movq	-88(%rbp), %rax
	addq	$344, %rax
	vmovsd	(%rax), %xmm0
	vmulsd	-104(%rbp), %xmm0, %xmm0
	vaddsd	%xmm0, %xmm1, %xmm1
	movq	-88(%rbp), %rax
	addq	$464, %rax
	vmovsd	(%rax), %xmm0
	vmulsd	-96(%rbp), %xmm0, %xmm0
	vaddsd	%xmm0, %xmm1, %xmm0
	vmovsd	-144(%rbp), %xmm1
	vaddsd	%xmm0, %xmm1, %xmm0
	vmovsd	%xmm0, -144(%rbp)
	.loc 4 759 0
	movq	-88(%rbp), %rax
	addq	$112, %rax
	vmovsd	(%rax), %xmm0
	vmulsd	-120(%rbp), %xmm0, %xmm1
	movq	-88(%rbp), %rax
	addq	$232, %rax
	vmovsd	(%rax), %xmm0
	vmulsd	-112(%rbp), %xmm0, %xmm0
	vaddsd	%xmm0, %xmm1, %xmm1
	movq	-88(%rbp), %rax
	addq	$352, %rax
	vmovsd	(%rax), %xmm0
	vmulsd	-104(%rbp), %xmm0, %xmm0
	vaddsd	%xmm0, %xmm1, %xmm1
	movq	-88(%rbp), %rax
	addq	$472, %rax
	vmovsd	(%rax), %xmm0
	vmulsd	-96(%rbp), %xmm0, %xmm0
	vaddsd	%xmm0, %xmm1, %xmm0
	vmovsd	-136(%rbp), %xmm1
	vaddsd	%xmm0, %xmm1, %xmm0
	vmovsd	%xmm0, -136(%rbp)
	.loc 4 760 0
	addq	$480, -88(%rbp)
	.loc 4 762 0
	movq	-128(%rbp), %rax
	addq	$64, %rax
	movq	(%rax), %rax
	movq	%rax, -120(%rbp)
	movq	-128(%rbp), %rax
	addq	$72, %rax
	movq	(%rax), %rax
	movq	%rax, -112(%rbp)
	movq	-128(%rbp), %rax
	addq	$80, %rax
	movq	(%rax), %rax
	movq	%rax, -104(%rbp)
	movq	-128(%rbp), %rax
	addq	$88, %rax
	movq	(%rax), %rax
	movq	%rax, -96(%rbp)
	.loc 4 763 0
	movq	-88(%rbp), %rax
	vmovsd	(%rax), %xmm0
	vmulsd	-120(%rbp), %xmm0, %xmm1
	movq	-88(%rbp), %rax
	addq	$120, %rax
	vmovsd	(%rax), %xmm0
	vmulsd	-112(%rbp), %xmm0, %xmm0
	vaddsd	%xmm0, %xmm1, %xmm1
	movq	-88(%rbp), %rax
	addq	$240, %rax
	vmovsd	(%rax), %xmm0
	vmulsd	-104(%rbp), %xmm0, %xmm0
	vaddsd	%xmm0, %xmm1, %xmm1
	movq	-88(%rbp), %rax
	addq	$360, %rax
	vmovsd	(%rax), %xmm0
	vmulsd	-96(%rbp), %xmm0, %xmm0
	vaddsd	%xmm0, %xmm1, %xmm0
	vmovsd	-248(%rbp), %xmm1
	vaddsd	%xmm0, %xmm1, %xmm0
	vmovsd	%xmm0, -248(%rbp)
	.loc 4 764 0
	movq	-88(%rbp), %rax
	addq	$8, %rax
	vmovsd	(%rax), %xmm0
	vmulsd	-120(%rbp), %xmm0, %xmm1
	movq	-88(%rbp), %rax
	subq	$-128, %rax
	vmovsd	(%rax), %xmm0
	vmulsd	-112(%rbp), %xmm0, %xmm0
	vaddsd	%xmm0, %xmm1, %xmm1
	movq	-88(%rbp), %rax
	addq	$248, %rax
	vmovsd	(%rax), %xmm0
	vmulsd	-104(%rbp), %xmm0, %xmm0
	vaddsd	%xmm0, %xmm1, %xmm1
	movq	-88(%rbp), %rax
	addq	$368, %rax
	vmovsd	(%rax), %xmm0
	vmulsd	-96(%rbp), %xmm0, %xmm0
	vaddsd	%xmm0, %xmm1, %xmm0
	vmovsd	-240(%rbp), %xmm1
	vaddsd	%xmm0, %xmm1, %xmm0
	vmovsd	%xmm0, -240(%rbp)
	.loc 4 765 0
	movq	-88(%rbp), %rax
	addq	$16, %rax
	vmovsd	(%rax), %xmm0
	vmulsd	-120(%rbp), %xmm0, %xmm1
	movq	-88(%rbp), %rax
	addq	$136, %rax
	vmovsd	(%rax), %xmm0
	vmulsd	-112(%rbp), %xmm0, %xmm0
	vaddsd	%xmm0, %xmm1, %xmm1
	movq	-88(%rbp), %rax
	addq	$256, %rax
	vmovsd	(%rax), %xmm0
	vmulsd	-104(%rbp), %xmm0, %xmm0
	vaddsd	%xmm0, %xmm1, %xmm1
	movq	-88(%rbp), %rax
	addq	$376, %rax
	vmovsd	(%rax), %xmm0
	vmulsd	-96(%rbp), %xmm0, %xmm0
	vaddsd	%xmm0, %xmm1, %xmm0
	vmovsd	-232(%rbp), %xmm1
	vaddsd	%xmm0, %xmm1, %xmm0
	vmovsd	%xmm0, -232(%rbp)
	.loc 4 766 0
	movq	-88(%rbp), %rax
	addq	$24, %rax
	vmovsd	(%rax), %xmm0
	vmulsd	-120(%rbp), %xmm0, %xmm1
	movq	-88(%rbp), %rax
	addq	$144, %rax
	vmovsd	(%rax), %xmm0
	vmulsd	-112(%rbp), %xmm0, %xmm0
	vaddsd	%xmm0, %xmm1, %xmm1
	movq	-88(%rbp), %rax
	addq	$264, %rax
	vmovsd	(%rax), %xmm0
	vmulsd	-104(%rbp), %xmm0, %xmm0
	vaddsd	%xmm0, %xmm1, %xmm1
	movq	-88(%rbp), %rax
	addq	$384, %rax
	vmovsd	(%rax), %xmm0
	vmulsd	-96(%rbp), %xmm0, %xmm0
	vaddsd	%xmm0, %xmm1, %xmm0
	vmovsd	-224(%rbp), %xmm1
	vaddsd	%xmm0, %xmm1, %xmm0
	vmovsd	%xmm0, -224(%rbp)
	.loc 4 767 0
	movq	-88(%rbp), %rax
	addq	$32, %rax
	vmovsd	(%rax), %xmm0
	vmulsd	-120(%rbp), %xmm0, %xmm1
	movq	-88(%rbp), %rax
	addq	$152, %rax
	vmovsd	(%rax), %xmm0
	vmulsd	-112(%rbp), %xmm0, %xmm0
	vaddsd	%xmm0, %xmm1, %xmm1
	movq	-88(%rbp), %rax
	addq	$272, %rax
	vmovsd	(%rax), %xmm0
	vmulsd	-104(%rbp), %xmm0, %xmm0
	vaddsd	%xmm0, %xmm1, %xmm1
	movq	-88(%rbp), %rax
	addq	$392, %rax
	vmovsd	(%rax), %xmm0
	vmulsd	-96(%rbp), %xmm0, %xmm0
	vaddsd	%xmm0, %xmm1, %xmm0
	vmovsd	-216(%rbp), %xmm1
	vaddsd	%xmm0, %xmm1, %xmm0
	vmovsd	%xmm0, -216(%rbp)
	.loc 4 768 0
	movq	-88(%rbp), %rax
	addq	$40, %rax
	vmovsd	(%rax), %xmm0
	vmulsd	-120(%rbp), %xmm0, %xmm1
	movq	-88(%rbp), %rax
	addq	$160, %rax
	vmovsd	(%rax), %xmm0
	vmulsd	-112(%rbp), %xmm0, %xmm0
	vaddsd	%xmm0, %xmm1, %xmm1
	movq	-88(%rbp), %rax
	addq	$280, %rax
	vmovsd	(%rax), %xmm0
	vmulsd	-104(%rbp), %xmm0, %xmm0
	vaddsd	%xmm0, %xmm1, %xmm1
	movq	-88(%rbp), %rax
	addq	$400, %rax
	vmovsd	(%rax), %xmm0
	vmulsd	-96(%rbp), %xmm0, %xmm0
	vaddsd	%xmm0, %xmm1, %xmm0
	vmovsd	-208(%rbp), %xmm1
	vaddsd	%xmm0, %xmm1, %xmm0
	vmovsd	%xmm0, -208(%rbp)
	.loc 4 769 0
	movq	-88(%rbp), %rax
	addq	$48, %rax
	vmovsd	(%rax), %xmm0
	vmulsd	-120(%rbp), %xmm0, %xmm1
	movq	-88(%rbp), %rax
	addq	$168, %rax
	vmovsd	(%rax), %xmm0
	vmulsd	-112(%rbp), %xmm0, %xmm0
	vaddsd	%xmm0, %xmm1, %xmm1
	movq	-88(%rbp), %rax
	addq	$288, %rax
	vmovsd	(%rax), %xmm0
	vmulsd	-104(%rbp), %xmm0, %xmm0
	vaddsd	%xmm0, %xmm1, %xmm1
	movq	-88(%rbp), %rax
	addq	$408, %rax
	vmovsd	(%rax), %xmm0
	vmulsd	-96(%rbp), %xmm0, %xmm0
	vaddsd	%xmm0, %xmm1, %xmm0
	vmovsd	-200(%rbp), %xmm1
	vaddsd	%xmm0, %xmm1, %xmm0
	vmovsd	%xmm0, -200(%rbp)
	.loc 4 770 0
	movq	-88(%rbp), %rax
	addq	$56, %rax
	vmovsd	(%rax), %xmm0
	vmulsd	-120(%rbp), %xmm0, %xmm1
	movq	-88(%rbp), %rax
	addq	$176, %rax
	vmovsd	(%rax), %xmm0
	vmulsd	-112(%rbp), %xmm0, %xmm0
	vaddsd	%xmm0, %xmm1, %xmm1
	movq	-88(%rbp), %rax
	addq	$296, %rax
	vmovsd	(%rax), %xmm0
	vmulsd	-104(%rbp), %xmm0, %xmm0
	vaddsd	%xmm0, %xmm1, %xmm1
	movq	-88(%rbp), %rax
	addq	$416, %rax
	vmovsd	(%rax), %xmm0
	vmulsd	-96(%rbp), %xmm0, %xmm0
	vaddsd	%xmm0, %xmm1, %xmm0
	vmovsd	-192(%rbp), %xmm1
	vaddsd	%xmm0, %xmm1, %xmm0
	vmovsd	%xmm0, -192(%rbp)
	.loc 4 771 0
	movq	-88(%rbp), %rax
	addq	$64, %rax
	vmovsd	(%rax), %xmm0
	vmulsd	-120(%rbp), %xmm0, %xmm1
	movq	-88(%rbp), %rax
	addq	$184, %rax
	vmovsd	(%rax), %xmm0
	vmulsd	-112(%rbp), %xmm0, %xmm0
	vaddsd	%xmm0, %xmm1, %xmm1
	movq	-88(%rbp), %rax
	addq	$304, %rax
	vmovsd	(%rax), %xmm0
	vmulsd	-104(%rbp), %xmm0, %xmm0
	vaddsd	%xmm0, %xmm1, %xmm1
	movq	-88(%rbp), %rax
	addq	$424, %rax
	vmovsd	(%rax), %xmm0
	vmulsd	-96(%rbp), %xmm0, %xmm0
	vaddsd	%xmm0, %xmm1, %xmm0
	vmovsd	-184(%rbp), %xmm1
	vaddsd	%xmm0, %xmm1, %xmm0
	vmovsd	%xmm0, -184(%rbp)
	.loc 4 772 0
	movq	-88(%rbp), %rax
	addq	$72, %rax
	vmovsd	(%rax), %xmm0
	vmulsd	-120(%rbp), %xmm0, %xmm1
	movq	-88(%rbp), %rax
	addq	$192, %rax
	vmovsd	(%rax), %xmm0
	vmulsd	-112(%rbp), %xmm0, %xmm0
	vaddsd	%xmm0, %xmm1, %xmm1
	movq	-88(%rbp), %rax
	addq	$312, %rax
	vmovsd	(%rax), %xmm0
	vmulsd	-104(%rbp), %xmm0, %xmm0
	vaddsd	%xmm0, %xmm1, %xmm1
	movq	-88(%rbp), %rax
	addq	$432, %rax
	vmovsd	(%rax), %xmm0
	vmulsd	-96(%rbp), %xmm0, %xmm0
	vaddsd	%xmm0, %xmm1, %xmm0
	vmovsd	-176(%rbp), %xmm1
	vaddsd	%xmm0, %xmm1, %xmm0
	vmovsd	%xmm0, -176(%rbp)
	.loc 4 773 0
	movq	-88(%rbp), %rax
	addq	$80, %rax
	vmovsd	(%rax), %xmm0
	vmulsd	-120(%rbp), %xmm0, %xmm1
	movq	-88(%rbp), %rax
	addq	$200, %rax
	vmovsd	(%rax), %xmm0
	vmulsd	-112(%rbp), %xmm0, %xmm0
	vaddsd	%xmm0, %xmm1, %xmm1
	movq	-88(%rbp), %rax
	addq	$320, %rax
	vmovsd	(%rax), %xmm0
	vmulsd	-104(%rbp), %xmm0, %xmm0
	vaddsd	%xmm0, %xmm1, %xmm1
	movq	-88(%rbp), %rax
	addq	$440, %rax
	vmovsd	(%rax), %xmm0
	vmulsd	-96(%rbp), %xmm0, %xmm0
	vaddsd	%xmm0, %xmm1, %xmm0
	vmovsd	-168(%rbp), %xmm1
	vaddsd	%xmm0, %xmm1, %xmm0
	vmovsd	%xmm0, -168(%rbp)
	.loc 4 774 0
	movq	-88(%rbp), %rax
	addq	$88, %rax
	vmovsd	(%rax), %xmm0
	vmulsd	-120(%rbp), %xmm0, %xmm1
	movq	-88(%rbp), %rax
	addq	$208, %rax
	vmovsd	(%rax), %xmm0
	vmulsd	-112(%rbp), %xmm0, %xmm0
	vaddsd	%xmm0, %xmm1, %xmm1
	movq	-88(%rbp), %rax
	addq	$328, %rax
	vmovsd	(%rax), %xmm0
	vmulsd	-104(%rbp), %xmm0, %xmm0
	vaddsd	%xmm0, %xmm1, %xmm1
	movq	-88(%rbp), %rax
	addq	$448, %rax
	vmovsd	(%rax), %xmm0
	vmulsd	-96(%rbp), %xmm0, %xmm0
	vaddsd	%xmm0, %xmm1, %xmm0
	vmovsd	-160(%rbp), %xmm1
	vaddsd	%xmm0, %xmm1, %xmm0
	vmovsd	%xmm0, -160(%rbp)
	.loc 4 775 0
	movq	-88(%rbp), %rax
	addq	$96, %rax
	vmovsd	(%rax), %xmm0
	vmulsd	-120(%rbp), %xmm0, %xmm1
	movq	-88(%rbp), %rax
	addq	$216, %rax
	vmovsd	(%rax), %xmm0
	vmulsd	-112(%rbp), %xmm0, %xmm0
	vaddsd	%xmm0, %xmm1, %xmm1
	movq	-88(%rbp), %rax
	addq	$336, %rax
	vmovsd	(%rax), %xmm0
	vmulsd	-104(%rbp), %xmm0, %xmm0
	vaddsd	%xmm0, %xmm1, %xmm1
	movq	-88(%rbp), %rax
	addq	$456, %rax
	vmovsd	(%rax), %xmm0
	vmulsd	-96(%rbp), %xmm0, %xmm0
	vaddsd	%xmm0, %xmm1, %xmm0
	vmovsd	-152(%rbp), %xmm1
	vaddsd	%xmm0, %xmm1, %xmm0
	vmovsd	%xmm0, -152(%rbp)
	.loc 4 776 0
	movq	-88(%rbp), %rax
	addq	$104, %rax
	vmovsd	(%rax), %xmm0
	vmulsd	-120(%rbp), %xmm0, %xmm1
	movq	-88(%rbp), %rax
	addq	$224, %rax
	vmovsd	(%rax), %xmm0
	vmulsd	-112(%rbp), %xmm0, %xmm0
	vaddsd	%xmm0, %xmm1, %xmm1
	movq	-88(%rbp), %rax
	addq	$344, %rax
	vmovsd	(%rax), %xmm0
	vmulsd	-104(%rbp), %xmm0, %xmm0
	vaddsd	%xmm0, %xmm1, %xmm1
	movq	-88(%rbp), %rax
	addq	$464, %rax
	vmovsd	(%rax), %xmm0
	vmulsd	-96(%rbp), %xmm0, %xmm0
	vaddsd	%xmm0, %xmm1, %xmm0
	vmovsd	-144(%rbp), %xmm1
	vaddsd	%xmm0, %xmm1, %xmm0
	vmovsd	%xmm0, -144(%rbp)
	.loc 4 777 0
	movq	-88(%rbp), %rax
	addq	$112, %rax
	vmovsd	(%rax), %xmm0
	vmulsd	-120(%rbp), %xmm0, %xmm1
	movq	-88(%rbp), %rax
	addq	$232, %rax
	vmovsd	(%rax), %xmm0
	vmulsd	-112(%rbp), %xmm0, %xmm0
	vaddsd	%xmm0, %xmm1, %xmm1
	movq	-88(%rbp), %rax
	addq	$352, %rax
	vmovsd	(%rax), %xmm0
	vmulsd	-104(%rbp), %xmm0, %xmm0
	vaddsd	%xmm0, %xmm1, %xmm1
	movq	-88(%rbp), %rax
	addq	$472, %rax
	vmovsd	(%rax), %xmm0
	vmulsd	-96(%rbp), %xmm0, %xmm0
	vaddsd	%xmm0, %xmm1, %xmm0
	vmovsd	-136(%rbp), %xmm1
	vaddsd	%xmm0, %xmm1, %xmm0
	vmovsd	%xmm0, -136(%rbp)
	.loc 4 778 0
	addq	$480, -88(%rbp)
	.loc 4 780 0
	movq	-128(%rbp), %rax
	addq	$96, %rax
	movq	(%rax), %rax
	movq	%rax, -120(%rbp)
	movq	-128(%rbp), %rax
	addq	$104, %rax
	movq	(%rax), %rax
	movq	%rax, -112(%rbp)
	movq	-128(%rbp), %rax
	addq	$112, %rax
	movq	(%rax), %rax
	movq	%rax, -104(%rbp)
	.loc 4 781 0
	movq	-88(%rbp), %rax
	vmovsd	(%rax), %xmm0
	vmulsd	-120(%rbp), %xmm0, %xmm1
	movq	-88(%rbp), %rax
	addq	$120, %rax
	vmovsd	(%rax), %xmm0
	vmulsd	-112(%rbp), %xmm0, %xmm0
	vaddsd	%xmm0, %xmm1, %xmm1
	movq	-88(%rbp), %rax
	addq	$240, %rax
	vmovsd	(%rax), %xmm0
	vmulsd	-104(%rbp), %xmm0, %xmm0
	vaddsd	%xmm0, %xmm1, %xmm0
	vmovsd	-248(%rbp), %xmm1
	vaddsd	%xmm0, %xmm1, %xmm0
	vmovsd	%xmm0, -248(%rbp)
	.loc 4 782 0
	movq	-88(%rbp), %rax
	addq	$8, %rax
	vmovsd	(%rax), %xmm0
	vmulsd	-120(%rbp), %xmm0, %xmm1
	movq	-88(%rbp), %rax
	subq	$-128, %rax
	vmovsd	(%rax), %xmm0
	vmulsd	-112(%rbp), %xmm0, %xmm0
	vaddsd	%xmm0, %xmm1, %xmm1
	movq	-88(%rbp), %rax
	addq	$248, %rax
	vmovsd	(%rax), %xmm0
	vmulsd	-104(%rbp), %xmm0, %xmm0
	vaddsd	%xmm0, %xmm1, %xmm0
	vmovsd	-240(%rbp), %xmm1
	vaddsd	%xmm0, %xmm1, %xmm0
	vmovsd	%xmm0, -240(%rbp)
	.loc 4 783 0
	movq	-88(%rbp), %rax
	addq	$16, %rax
	vmovsd	(%rax), %xmm0
	vmulsd	-120(%rbp), %xmm0, %xmm1
	movq	-88(%rbp), %rax
	addq	$136, %rax
	vmovsd	(%rax), %xmm0
	vmulsd	-112(%rbp), %xmm0, %xmm0
	vaddsd	%xmm0, %xmm1, %xmm1
	movq	-88(%rbp), %rax
	addq	$256, %rax
	vmovsd	(%rax), %xmm0
	vmulsd	-104(%rbp), %xmm0, %xmm0
	vaddsd	%xmm0, %xmm1, %xmm0
	vmovsd	-232(%rbp), %xmm1
	vaddsd	%xmm0, %xmm1, %xmm0
	vmovsd	%xmm0, -232(%rbp)
	.loc 4 784 0
	movq	-88(%rbp), %rax
	addq	$24, %rax
	vmovsd	(%rax), %xmm0
	vmulsd	-120(%rbp), %xmm0, %xmm1
	movq	-88(%rbp), %rax
	addq	$144, %rax
	vmovsd	(%rax), %xmm0
	vmulsd	-112(%rbp), %xmm0, %xmm0
	vaddsd	%xmm0, %xmm1, %xmm1
	movq	-88(%rbp), %rax
	addq	$264, %rax
	vmovsd	(%rax), %xmm0
	vmulsd	-104(%rbp), %xmm0, %xmm0
	vaddsd	%xmm0, %xmm1, %xmm0
	vmovsd	-224(%rbp), %xmm1
	vaddsd	%xmm0, %xmm1, %xmm0
	vmovsd	%xmm0, -224(%rbp)
	.loc 4 785 0
	movq	-88(%rbp), %rax
	addq	$32, %rax
	vmovsd	(%rax), %xmm0
	vmulsd	-120(%rbp), %xmm0, %xmm1
	movq	-88(%rbp), %rax
	addq	$152, %rax
	vmovsd	(%rax), %xmm0
	vmulsd	-112(%rbp), %xmm0, %xmm0
	vaddsd	%xmm0, %xmm1, %xmm1
	movq	-88(%rbp), %rax
	addq	$272, %rax
	vmovsd	(%rax), %xmm0
	vmulsd	-104(%rbp), %xmm0, %xmm0
	vaddsd	%xmm0, %xmm1, %xmm0
	vmovsd	-216(%rbp), %xmm1
	vaddsd	%xmm0, %xmm1, %xmm0
	vmovsd	%xmm0, -216(%rbp)
	.loc 4 786 0
	movq	-88(%rbp), %rax
	addq	$40, %rax
	vmovsd	(%rax), %xmm0
	vmulsd	-120(%rbp), %xmm0, %xmm1
	movq	-88(%rbp), %rax
	addq	$160, %rax
	vmovsd	(%rax), %xmm0
	vmulsd	-112(%rbp), %xmm0, %xmm0
	vaddsd	%xmm0, %xmm1, %xmm1
	movq	-88(%rbp), %rax
	addq	$280, %rax
	vmovsd	(%rax), %xmm0
	vmulsd	-104(%rbp), %xmm0, %xmm0
	vaddsd	%xmm0, %xmm1, %xmm0
	vmovsd	-208(%rbp), %xmm1
	vaddsd	%xmm0, %xmm1, %xmm0
	vmovsd	%xmm0, -208(%rbp)
	.loc 4 787 0
	movq	-88(%rbp), %rax
	addq	$48, %rax
	vmovsd	(%rax), %xmm0
	vmulsd	-120(%rbp), %xmm0, %xmm1
	movq	-88(%rbp), %rax
	addq	$168, %rax
	vmovsd	(%rax), %xmm0
	vmulsd	-112(%rbp), %xmm0, %xmm0
	vaddsd	%xmm0, %xmm1, %xmm1
	movq	-88(%rbp), %rax
	addq	$288, %rax
	vmovsd	(%rax), %xmm0
	vmulsd	-104(%rbp), %xmm0, %xmm0
	vaddsd	%xmm0, %xmm1, %xmm0
	vmovsd	-200(%rbp), %xmm1
	vaddsd	%xmm0, %xmm1, %xmm0
	vmovsd	%xmm0, -200(%rbp)
	.loc 4 788 0
	movq	-88(%rbp), %rax
	addq	$56, %rax
	vmovsd	(%rax), %xmm0
	vmulsd	-120(%rbp), %xmm0, %xmm1
	movq	-88(%rbp), %rax
	addq	$176, %rax
	vmovsd	(%rax), %xmm0
	vmulsd	-112(%rbp), %xmm0, %xmm0
	vaddsd	%xmm0, %xmm1, %xmm1
	movq	-88(%rbp), %rax
	addq	$296, %rax
	vmovsd	(%rax), %xmm0
	vmulsd	-104(%rbp), %xmm0, %xmm0
	vaddsd	%xmm0, %xmm1, %xmm0
	vmovsd	-192(%rbp), %xmm1
	vaddsd	%xmm0, %xmm1, %xmm0
	vmovsd	%xmm0, -192(%rbp)
	.loc 4 789 0
	movq	-88(%rbp), %rax
	addq	$64, %rax
	vmovsd	(%rax), %xmm0
	vmulsd	-120(%rbp), %xmm0, %xmm1
	movq	-88(%rbp), %rax
	addq	$184, %rax
	vmovsd	(%rax), %xmm0
	vmulsd	-112(%rbp), %xmm0, %xmm0
	vaddsd	%xmm0, %xmm1, %xmm1
	movq	-88(%rbp), %rax
	addq	$304, %rax
	vmovsd	(%rax), %xmm0
	vmulsd	-104(%rbp), %xmm0, %xmm0
	vaddsd	%xmm0, %xmm1, %xmm0
	vmovsd	-184(%rbp), %xmm1
	vaddsd	%xmm0, %xmm1, %xmm0
	vmovsd	%xmm0, -184(%rbp)
	.loc 4 790 0
	movq	-88(%rbp), %rax
	addq	$72, %rax
	vmovsd	(%rax), %xmm0
	vmulsd	-120(%rbp), %xmm0, %xmm1
	movq	-88(%rbp), %rax
	addq	$192, %rax
	vmovsd	(%rax), %xmm0
	vmulsd	-112(%rbp), %xmm0, %xmm0
	vaddsd	%xmm0, %xmm1, %xmm1
	movq	-88(%rbp), %rax
	addq	$312, %rax
	vmovsd	(%rax), %xmm0
	vmulsd	-104(%rbp), %xmm0, %xmm0
	vaddsd	%xmm0, %xmm1, %xmm0
	vmovsd	-176(%rbp), %xmm1
	vaddsd	%xmm0, %xmm1, %xmm0
	vmovsd	%xmm0, -176(%rbp)
	.loc 4 791 0
	movq	-88(%rbp), %rax
	addq	$80, %rax
	vmovsd	(%rax), %xmm0
	vmulsd	-120(%rbp), %xmm0, %xmm1
	movq	-88(%rbp), %rax
	addq	$200, %rax
	vmovsd	(%rax), %xmm0
	vmulsd	-112(%rbp), %xmm0, %xmm0
	vaddsd	%xmm0, %xmm1, %xmm1
	movq	-88(%rbp), %rax
	addq	$320, %rax
	vmovsd	(%rax), %xmm0
	vmulsd	-104(%rbp), %xmm0, %xmm0
	vaddsd	%xmm0, %xmm1, %xmm0
	vmovsd	-168(%rbp), %xmm1
	vaddsd	%xmm0, %xmm1, %xmm0
	vmovsd	%xmm0, -168(%rbp)
	.loc 4 792 0
	movq	-88(%rbp), %rax
	addq	$88, %rax
	vmovsd	(%rax), %xmm0
	vmulsd	-120(%rbp), %xmm0, %xmm1
	movq	-88(%rbp), %rax
	addq	$208, %rax
	vmovsd	(%rax), %xmm0
	vmulsd	-112(%rbp), %xmm0, %xmm0
	vaddsd	%xmm0, %xmm1, %xmm1
	movq	-88(%rbp), %rax
	addq	$328, %rax
	vmovsd	(%rax), %xmm0
	vmulsd	-104(%rbp), %xmm0, %xmm0
	vaddsd	%xmm0, %xmm1, %xmm0
	vmovsd	-160(%rbp), %xmm1
	vaddsd	%xmm0, %xmm1, %xmm0
	vmovsd	%xmm0, -160(%rbp)
	.loc 4 793 0
	movq	-88(%rbp), %rax
	addq	$96, %rax
	vmovsd	(%rax), %xmm0
	vmulsd	-120(%rbp), %xmm0, %xmm1
	movq	-88(%rbp), %rax
	addq	$216, %rax
	vmovsd	(%rax), %xmm0
	vmulsd	-112(%rbp), %xmm0, %xmm0
	vaddsd	%xmm0, %xmm1, %xmm1
	movq	-88(%rbp), %rax
	addq	$336, %rax
	vmovsd	(%rax), %xmm0
	vmulsd	-104(%rbp), %xmm0, %xmm0
	vaddsd	%xmm0, %xmm1, %xmm0
	vmovsd	-152(%rbp), %xmm1
	vaddsd	%xmm0, %xmm1, %xmm0
	vmovsd	%xmm0, -152(%rbp)
	.loc 4 794 0
	movq	-88(%rbp), %rax
	addq	$104, %rax
	vmovsd	(%rax), %xmm0
	vmulsd	-120(%rbp), %xmm0, %xmm1
	movq	-88(%rbp), %rax
	addq	$224, %rax
	vmovsd	(%rax), %xmm0
	vmulsd	-112(%rbp), %xmm0, %xmm0
	vaddsd	%xmm0, %xmm1, %xmm1
	movq	-88(%rbp), %rax
	addq	$344, %rax
	vmovsd	(%rax), %xmm0
	vmulsd	-104(%rbp), %xmm0, %xmm0
	vaddsd	%xmm0, %xmm1, %xmm0
	vmovsd	-144(%rbp), %xmm1
	vaddsd	%xmm0, %xmm1, %xmm0
	vmovsd	%xmm0, -144(%rbp)
	.loc 4 795 0
	movq	-88(%rbp), %rax
	addq	$112, %rax
	vmovsd	(%rax), %xmm0
	vmulsd	-120(%rbp), %xmm0, %xmm1
	movq	-88(%rbp), %rax
	addq	$232, %rax
	vmovsd	(%rax), %xmm0
	vmulsd	-112(%rbp), %xmm0, %xmm0
	vaddsd	%xmm0, %xmm1, %xmm1
	movq	-88(%rbp), %rax
	addq	$352, %rax
	vmovsd	(%rax), %xmm0
	vmulsd	-104(%rbp), %xmm0, %xmm0
	vaddsd	%xmm0, %xmm1, %xmm0
	vmovsd	-136(%rbp), %xmm1
	vaddsd	%xmm0, %xmm1, %xmm0
	vmovsd	%xmm0, -136(%rbp)
	.loc 4 796 0
	addq	$360, -88(%rbp)
	.loc 4 721 0
	addl	$1, -40(%rbp)
.L435:
	movl	-40(%rbp), %eax
	cmpl	-36(%rbp), %eax
	jl	.L436
	.loc 4 798 0
	cmpl	$0, -20(%rbp)
	je	.L437
	movq	-280(%rbp), %rdx
	movl	-44(%rbp), %eax
	cltq
	salq	$2, %rax
	addq	-32(%rbp), %rax
	movl	(%rax), %eax
	cltq
	salq	$3, %rax
	movq	%rax, %rcx
	salq	$4, %rcx
	movq	%rcx, %rbx
	subq	%rax, %rbx
	movq	%rbx, %rax
	leaq	(%rdx,%rax), %rax
	movq	%rax, -256(%rbp)
.L437:
	.loc 4 799 0
	movq	-256(%rbp), %rax
	movq	-248(%rbp), %rdx
	movq	%rdx, (%rax)
	movq	-256(%rbp), %rax
	leaq	8(%rax), %rdx
	movq	-240(%rbp), %rax
	movq	%rax, (%rdx)
	movq	-256(%rbp), %rax
	leaq	16(%rax), %rdx
	movq	-232(%rbp), %rax
	movq	%rax, (%rdx)
	movq	-256(%rbp), %rax
	leaq	24(%rax), %rdx
	movq	-224(%rbp), %rax
	movq	%rax, (%rdx)
	movq	-256(%rbp), %rax
	leaq	32(%rax), %rdx
	movq	-216(%rbp), %rax
	movq	%rax, (%rdx)
	movq	-256(%rbp), %rax
	leaq	40(%rax), %rdx
	movq	-208(%rbp), %rax
	movq	%rax, (%rdx)
	movq	-256(%rbp), %rax
	leaq	48(%rax), %rdx
	movq	-200(%rbp), %rax
	movq	%rax, (%rdx)
	.loc 4 800 0
	movq	-256(%rbp), %rax
	leaq	56(%rax), %rdx
	movq	-192(%rbp), %rax
	movq	%rax, (%rdx)
	movq	-256(%rbp), %rax
	leaq	64(%rax), %rdx
	movq	-184(%rbp), %rax
	movq	%rax, (%rdx)
	movq	-256(%rbp), %rax
	leaq	72(%rax), %rdx
	movq	-176(%rbp), %rax
	movq	%rax, (%rdx)
	movq	-256(%rbp), %rax
	leaq	80(%rax), %rdx
	movq	-168(%rbp), %rax
	movq	%rax, (%rdx)
	movq	-256(%rbp), %rax
	leaq	88(%rax), %rdx
	movq	-160(%rbp), %rax
	movq	%rax, (%rdx)
	movq	-256(%rbp), %rax
	leaq	96(%rax), %rdx
	movq	-152(%rbp), %rax
	movq	%rax, (%rdx)
	movq	-256(%rbp), %rax
	leaq	104(%rax), %rdx
	movq	-144(%rbp), %rax
	movq	%rax, (%rdx)
	movq	-256(%rbp), %rax
	leaq	112(%rax), %rdx
	movq	-136(%rbp), %rax
	movq	%rax, (%rdx)
	.loc 4 802 0
	cmpl	$0, -20(%rbp)
	jne	.L438
	addq	$120, -256(%rbp)
.L438:
	.loc 4 714 0
	addl	$1, -44(%rbp)
.L434:
	movl	-44(%rbp), %eax
	cmpl	-48(%rbp), %eax
	jl	.L439
	.loc 4 805 0
	leaq	-272(%rbp), %rdx
	movq	-304(%rbp), %rax
	movq	%rdx, %rsi
	movq	%rax, %rdi
	call	VecRestoreArrayRead
	movl	%eax, -76(%rbp)
	cmpl	$0, -76(%rbp)
	setne	%al
	movzbl	%al, %eax
	testq	%rax, %rax
	je	.L440
	movl	-76(%rbp), %eax
	movq	$.LC5, 8(%rsp)
	movl	$1, (%rsp)
	movl	%eax, %r9d
	movl	$.LC3, %r8d
	movl	$.LC6, %ecx
	movl	$__func__.27446, %edx
	movl	$805, %esi
	movl	$1140850689, %edi
	movl	$0, %eax
	call	PetscError
	jmp	.L430
.L440:
	.loc 4 806 0
	leaq	-280(%rbp), %rdx
	movq	-312(%rbp), %rax
	movq	%rdx, %rsi
	movq	%rax, %rdi
	call	VecRestoreArray
	movl	%eax, -76(%rbp)
	cmpl	$0, -76(%rbp)
	setne	%al
	movzbl	%al, %eax
	testq	%rax, %rax
	je	.L441
	movl	-76(%rbp), %eax
	movq	$.LC5, 8(%rsp)
	movl	$1, (%rsp)
	movl	%eax, %r9d
	movl	$.LC3, %r8d
	movl	$.LC6, %ecx
	movl	$__func__.27446, %edx
	movl	$806, %esi
	movl	$1140850689, %edi
	movl	$0, %eax
	call	PetscError
	jmp	.L430
.L441:
	.loc 4 807 0
	movq	-264(%rbp), %rax
	movl	128(%rax), %eax
	vcvtsi2sd	%eax, %xmm0, %xmm0
	vmovsd	.LC26(%rip), %xmm1
	vmulsd	%xmm1, %xmm0, %xmm1
	vcvtsi2sd	-24(%rbp), %xmm0, %xmm0
	vmovsd	.LC27(%rip), %xmm2
	vmulsd	%xmm2, %xmm0, %xmm0
	vaddsd	%xmm0, %xmm1, %xmm0
	vmovsd	_TotalFlops(%rip), %xmm1
	vaddsd	%xmm1, %xmm0, %xmm0
	vmovsd	%xmm0, _TotalFlops(%rip)
	movl	$0, -76(%rbp)
	cmpl	$0, -76(%rbp)
	setne	%al
	movzbl	%al, %eax
	testq	%rax, %rax
	je	.L442
	movl	-76(%rbp), %eax
	movq	$.LC5, 8(%rsp)
	movl	$1, (%rsp)
	movl	%eax, %r9d
	movl	$.LC3, %r8d
	movl	$.LC6, %ecx
	movl	$__func__.27446, %edx
	movl	$807, %esi
	movl	$1140850689, %edi
	movl	$0, %eax
	call	PetscError
	jmp	.L430
.L442:
	.loc 4 808 0
	movq	petscstack(%rip), %rax
	testq	%rax, %rax
	je	.L443
	movq	petscstack(%rip), %rax
	movl	1792(%rax), %eax
	testl	%eax, %eax
	jle	.L443
	movq	petscstack(%rip), %rax
	movl	1792(%rax), %edx
	subl	$1, %edx
	movl	%edx, 1792(%rax)
	movq	petscstack(%rip), %rax
	movq	petscstack(%rip), %rdx
	movl	1792(%rdx), %edx
	movslq	%edx, %rdx
	movq	$0, (%rax,%rdx,8)
	movq	petscstack(%rip), %rax
	movq	petscstack(%rip), %rdx
	movl	1792(%rdx), %edx
	movslq	%edx, %rdx
	addq	$64, %rdx
	movq	$0, (%rax,%rdx,8)
	movq	petscstack(%rip), %rax
	movq	petscstack(%rip), %rdx
	movl	1792(%rdx), %edx
	movslq	%edx, %rdx
	subq	$-128, %rdx
	movq	$0, (%rax,%rdx,8)
	movq	petscstack(%rip), %rax
	movq	petscstack(%rip), %rdx
	movl	1792(%rdx), %edx
	movslq	%edx, %rdx
	addq	$384, %rdx
	movl	$0, (%rax,%rdx,4)
.L443:
	movl	$0, %eax
.L430:
	.loc 4 809 0
	addq	$328, %rsp
	popq	%rbx
	leave
	.cfi_def_cfa 7, 8
	ret
	.cfi_endproc
.LFE74:
	.size	MatMult_SeqBAIJ_15_ver2, .-MatMult_SeqBAIJ_15_ver2
.globl MatMult_SeqBAIJ_15_ver3
	.type	MatMult_SeqBAIJ_15_ver3, @function
MatMult_SeqBAIJ_15_ver3:
.LFB75:
	.loc 4 815 0
	.cfi_startproc
	pushq	%rbp
	.cfi_def_cfa_offset 16
	.cfi_offset 6, -16
	movq	%rsp, %rbp
	.cfi_def_cfa_register 6
	pushq	%rbx
	subq	$360, %rsp
	movq	%rdi, -328(%rbp)
	movq	%rsi, -336(%rbp)
	movq	%rdx, -344(%rbp)
	.loc 4 816 0
	movq	-328(%rbp), %rax
	movq	472(%rax), %rax
	movq	%rax, -296(%rbp)
	.loc 4 817 0
	movq	$0, -288(%rbp)
	.loc 4 822 0
	movq	-296(%rbp), %rax
	movq	144(%rax), %rax
	movq	%rax, -64(%rbp)
	.loc 4 823 0
	movq	$0, -32(%rbp)
	movl	$0, -24(%rbp)
	.loc 4 824 0
	movq	-296(%rbp), %rax
	movl	100(%rax), %eax
	movl	%eax, -20(%rbp)
	.loc 4 826 0
	movq	petscstack(%rip), %rax
	testq	%rax, %rax
	je	.L467
	.cfi_offset 3, -24
	movq	petscstack(%rip), %rax
	movl	1792(%rax), %eax
	cmpl	$63, %eax
	jg	.L468
	movq	petscstack(%rip), %rax
	movq	petscstack(%rip), %rdx
	movl	1792(%rdx), %edx
	movslq	%edx, %rdx
	movq	$__func__.28485, (%rax,%rdx,8)
	movq	petscstack(%rip), %rax
	movq	petscstack(%rip), %rdx
	movl	1792(%rdx), %edx
	movslq	%edx, %rdx
	addq	$64, %rdx
	movq	$.LC6, (%rax,%rdx,8)
	movq	petscstack(%rip), %rax
	movq	petscstack(%rip), %rdx
	movl	1792(%rdx), %edx
	movslq	%edx, %rdx
	subq	$-128, %rdx
	movq	$.LC3, (%rax,%rdx,8)
	movq	petscstack(%rip), %rax
	movq	petscstack(%rip), %rdx
	movl	1792(%rdx), %edx
	movslq	%edx, %rdx
	addq	$384, %rdx
	movl	$826, (%rax,%rdx,4)
	movq	petscstack(%rip), %rax
	movl	1792(%rax), %edx
	addl	$1, %edx
	movl	%edx, 1792(%rax)
	jmp	.L466
.L467:
	nop
	jmp	.L466
.L468:
	nop
.L466:
	.loc 4 827 0
	leaq	-304(%rbp), %rdx
	movq	-336(%rbp), %rax
	movq	%rdx, %rsi
	movq	%rax, %rdi
	call	VecGetArrayRead
	movl	%eax, -76(%rbp)
	cmpl	$0, -76(%rbp)
	setne	%al
	movzbl	%al, %eax
	testq	%rax, %rax
	je	.L450
	movl	-76(%rbp), %eax
	movq	$.LC5, 8(%rsp)
	movl	$1, (%rsp)
	movl	%eax, %r9d
	movl	$.LC3, %r8d
	movl	$.LC6, %ecx
	movl	$__func__.28485, %edx
	movl	$827, %esi
	movl	$1140850689, %edi
	movl	$0, %eax
	call	PetscError
	jmp	.L451
.L450:
	.loc 4 828 0
	leaq	-312(%rbp), %rdx
	movq	-344(%rbp), %rax
	movq	%rdx, %rsi
	movq	%rax, %rdi
	call	VecGetArray
	movl	%eax, -76(%rbp)
	cmpl	$0, -76(%rbp)
	setne	%al
	movzbl	%al, %eax
	testq	%rax, %rax
	je	.L452
	movl	-76(%rbp), %eax
	movq	$.LC5, 8(%rsp)
	movl	$1, (%rsp)
	movl	%eax, %r9d
	movl	$.LC3, %r8d
	movl	$.LC6, %ecx
	movl	$__func__.28485, %edx
	movl	$828, %esi
	movl	$1140850689, %edi
	movl	$0, %eax
	call	PetscError
	jmp	.L451
.L452:
	.loc 4 830 0
	movq	-296(%rbp), %rax
	movq	168(%rax), %rax
	movq	%rax, -88(%rbp)
	.loc 4 831 0
	cmpl	$0, -20(%rbp)
	je	.L453
	.loc 4 832 0
	movq	-296(%rbp), %rax
	movl	104(%rax), %eax
	movl	%eax, -48(%rbp)
	.loc 4 833 0
	movq	-296(%rbp), %rax
	movq	112(%rax), %rax
	movq	%rax, -72(%rbp)
	.loc 4 834 0
	movq	-296(%rbp), %rax
	movq	120(%rax), %rax
	movq	%rax, -32(%rbp)
	jmp	.L454
.L453:
	.loc 4 836 0
	movq	-296(%rbp), %rax
	movl	228(%rax), %eax
	movl	%eax, -48(%rbp)
	.loc 4 837 0
	movq	-296(%rbp), %rax
	movq	136(%rax), %rax
	movq	%rax, -72(%rbp)
	.loc 4 838 0
	movq	-312(%rbp), %rax
	movq	%rax, -288(%rbp)
.L454:
	.loc 4 841 0
	movl	$0, -44(%rbp)
	jmp	.L455
.L460:
	.loc 4 842 0
	movl	-44(%rbp), %eax
	cltq
	addq	$1, %rax
	salq	$2, %rax
	addq	-72(%rbp), %rax
	movl	(%rax), %edx
	movl	-44(%rbp), %eax
	cltq
	salq	$2, %rax
	addq	-72(%rbp), %rax
	movl	(%rax), %eax
	movl	%edx, %ecx
	subl	%eax, %ecx
	movl	%ecx, %eax
	movl	%eax, -36(%rbp)
	.loc 4 843 0
	movl	-44(%rbp), %eax
	cltq
	salq	$2, %rax
	addq	-72(%rbp), %rax
	movl	(%rax), %eax
	cltq
	salq	$2, %rax
	addq	-64(%rbp), %rax
	movq	%rax, -56(%rbp)
	.loc 4 844 0
	movl	$0, %eax
	movq	%rax, -280(%rbp)
	movl	$0, %eax
	movq	%rax, -272(%rbp)
	movl	$0, %eax
	movq	%rax, -264(%rbp)
	movl	$0, %eax
	movq	%rax, -256(%rbp)
	movl	$0, %eax
	movq	%rax, -248(%rbp)
	movl	$0, %eax
	movq	%rax, -240(%rbp)
	movl	$0, %eax
	movq	%rax, -232(%rbp)
	.loc 4 845 0
	movl	$0, %eax
	movq	%rax, -224(%rbp)
	movl	$0, %eax
	movq	%rax, -216(%rbp)
	movl	$0, %eax
	movq	%rax, -208(%rbp)
	movl	$0, %eax
	movq	%rax, -200(%rbp)
	movl	$0, %eax
	movq	%rax, -192(%rbp)
	movl	$0, %eax
	movq	%rax, -184(%rbp)
	movl	$0, %eax
	movq	%rax, -176(%rbp)
	movl	$0, %eax
	movq	%rax, -168(%rbp)
	.loc 4 847 0
	cmpl	$0, -36(%rbp)
	setg	%al
	movzbl	%al, %eax
	addl	%eax, -24(%rbp)
	.loc 4 848 0
	movl	$0, -40(%rbp)
	jmp	.L456
.L457:
	.loc 4 849 0
	movq	-304(%rbp), %rdx
	movl	-40(%rbp), %eax
	cltq
	salq	$2, %rax
	addq	-56(%rbp), %rax
	movl	(%rax), %eax
	cltq
	salq	$3, %rax
	movq	%rax, %rcx
	salq	$4, %rcx
	movq	%rcx, %rbx
	subq	%rax, %rbx
	movq	%rbx, %rax
	leaq	(%rdx,%rax), %rax
	movq	%rax, -160(%rbp)
	.loc 4 850 0
	movq	-160(%rbp), %rax
	movq	(%rax), %rax
	movq	%rax, -152(%rbp)
	movq	-160(%rbp), %rax
	addq	$8, %rax
	movq	(%rax), %rax
	movq	%rax, -144(%rbp)
	movq	-160(%rbp), %rax
	addq	$16, %rax
	movq	(%rax), %rax
	movq	%rax, -136(%rbp)
	movq	-160(%rbp), %rax
	addq	$24, %rax
	movq	(%rax), %rax
	movq	%rax, -128(%rbp)
	movq	-160(%rbp), %rax
	addq	$32, %rax
	movq	(%rax), %rax
	movq	%rax, -120(%rbp)
	movq	-160(%rbp), %rax
	addq	$40, %rax
	movq	(%rax), %rax
	movq	%rax, -112(%rbp)
	movq	-160(%rbp), %rax
	addq	$48, %rax
	movq	(%rax), %rax
	movq	%rax, -104(%rbp)
	.loc 4 851 0
	movq	-160(%rbp), %rax
	addq	$56, %rax
	movq	(%rax), %rax
	movq	%rax, -96(%rbp)
	.loc 4 853 0
	movq	-88(%rbp), %rax
	vmovsd	(%rax), %xmm0
	vmulsd	-152(%rbp), %xmm0, %xmm1
	movq	-88(%rbp), %rax
	addq	$120, %rax
	vmovsd	(%rax), %xmm0
	vmulsd	-144(%rbp), %xmm0, %xmm0
	vaddsd	%xmm0, %xmm1, %xmm1
	movq	-88(%rbp), %rax
	addq	$240, %rax
	vmovsd	(%rax), %xmm0
	vmulsd	-136(%rbp), %xmm0, %xmm0
	vaddsd	%xmm0, %xmm1, %xmm1
	movq	-88(%rbp), %rax
	addq	$360, %rax
	vmovsd	(%rax), %xmm0
	vmulsd	-128(%rbp), %xmm0, %xmm0
	vaddsd	%xmm0, %xmm1, %xmm1
	movq	-88(%rbp), %rax
	addq	$480, %rax
	vmovsd	(%rax), %xmm0
	vmulsd	-120(%rbp), %xmm0, %xmm0
	vaddsd	%xmm0, %xmm1, %xmm1
	movq	-88(%rbp), %rax
	addq	$600, %rax
	vmovsd	(%rax), %xmm0
	vmulsd	-112(%rbp), %xmm0, %xmm0
	vaddsd	%xmm0, %xmm1, %xmm1
	movq	-88(%rbp), %rax
	addq	$720, %rax
	vmovsd	(%rax), %xmm0
	vmulsd	-104(%rbp), %xmm0, %xmm0
	vaddsd	%xmm0, %xmm1, %xmm1
	movq	-88(%rbp), %rax
	addq	$840, %rax
	vmovsd	(%rax), %xmm0
	vmulsd	-96(%rbp), %xmm0, %xmm0
	vaddsd	%xmm0, %xmm1, %xmm0
	vmovsd	-280(%rbp), %xmm1
	vaddsd	%xmm0, %xmm1, %xmm0
	vmovsd	%xmm0, -280(%rbp)
	.loc 4 854 0
	movq	-88(%rbp), %rax
	addq	$8, %rax
	vmovsd	(%rax), %xmm0
	vmulsd	-152(%rbp), %xmm0, %xmm1
	movq	-88(%rbp), %rax
	subq	$-128, %rax
	vmovsd	(%rax), %xmm0
	vmulsd	-144(%rbp), %xmm0, %xmm0
	vaddsd	%xmm0, %xmm1, %xmm1
	movq	-88(%rbp), %rax
	addq	$248, %rax
	vmovsd	(%rax), %xmm0
	vmulsd	-136(%rbp), %xmm0, %xmm0
	vaddsd	%xmm0, %xmm1, %xmm1
	movq	-88(%rbp), %rax
	addq	$368, %rax
	vmovsd	(%rax), %xmm0
	vmulsd	-128(%rbp), %xmm0, %xmm0
	vaddsd	%xmm0, %xmm1, %xmm1
	movq	-88(%rbp), %rax
	addq	$488, %rax
	vmovsd	(%rax), %xmm0
	vmulsd	-120(%rbp), %xmm0, %xmm0
	vaddsd	%xmm0, %xmm1, %xmm1
	movq	-88(%rbp), %rax
	addq	$608, %rax
	vmovsd	(%rax), %xmm0
	vmulsd	-112(%rbp), %xmm0, %xmm0
	vaddsd	%xmm0, %xmm1, %xmm1
	movq	-88(%rbp), %rax
	addq	$728, %rax
	vmovsd	(%rax), %xmm0
	vmulsd	-104(%rbp), %xmm0, %xmm0
	vaddsd	%xmm0, %xmm1, %xmm1
	movq	-88(%rbp), %rax
	addq	$848, %rax
	vmovsd	(%rax), %xmm0
	vmulsd	-96(%rbp), %xmm0, %xmm0
	vaddsd	%xmm0, %xmm1, %xmm0
	vmovsd	-272(%rbp), %xmm1
	vaddsd	%xmm0, %xmm1, %xmm0
	vmovsd	%xmm0, -272(%rbp)
	.loc 4 855 0
	movq	-88(%rbp), %rax
	addq	$16, %rax
	vmovsd	(%rax), %xmm0
	vmulsd	-152(%rbp), %xmm0, %xmm1
	movq	-88(%rbp), %rax
	addq	$136, %rax
	vmovsd	(%rax), %xmm0
	vmulsd	-144(%rbp), %xmm0, %xmm0
	vaddsd	%xmm0, %xmm1, %xmm1
	movq	-88(%rbp), %rax
	addq	$256, %rax
	vmovsd	(%rax), %xmm0
	vmulsd	-136(%rbp), %xmm0, %xmm0
	vaddsd	%xmm0, %xmm1, %xmm1
	movq	-88(%rbp), %rax
	addq	$376, %rax
	vmovsd	(%rax), %xmm0
	vmulsd	-128(%rbp), %xmm0, %xmm0
	vaddsd	%xmm0, %xmm1, %xmm1
	movq	-88(%rbp), %rax
	addq	$496, %rax
	vmovsd	(%rax), %xmm0
	vmulsd	-120(%rbp), %xmm0, %xmm0
	vaddsd	%xmm0, %xmm1, %xmm1
	movq	-88(%rbp), %rax
	addq	$616, %rax
	vmovsd	(%rax), %xmm0
	vmulsd	-112(%rbp), %xmm0, %xmm0
	vaddsd	%xmm0, %xmm1, %xmm1
	movq	-88(%rbp), %rax
	addq	$736, %rax
	vmovsd	(%rax), %xmm0
	vmulsd	-104(%rbp), %xmm0, %xmm0
	vaddsd	%xmm0, %xmm1, %xmm1
	movq	-88(%rbp), %rax
	addq	$856, %rax
	vmovsd	(%rax), %xmm0
	vmulsd	-96(%rbp), %xmm0, %xmm0
	vaddsd	%xmm0, %xmm1, %xmm0
	vmovsd	-264(%rbp), %xmm1
	vaddsd	%xmm0, %xmm1, %xmm0
	vmovsd	%xmm0, -264(%rbp)
	.loc 4 856 0
	movq	-88(%rbp), %rax
	addq	$24, %rax
	vmovsd	(%rax), %xmm0
	vmulsd	-152(%rbp), %xmm0, %xmm1
	movq	-88(%rbp), %rax
	addq	$144, %rax
	vmovsd	(%rax), %xmm0
	vmulsd	-144(%rbp), %xmm0, %xmm0
	vaddsd	%xmm0, %xmm1, %xmm1
	movq	-88(%rbp), %rax
	addq	$264, %rax
	vmovsd	(%rax), %xmm0
	vmulsd	-136(%rbp), %xmm0, %xmm0
	vaddsd	%xmm0, %xmm1, %xmm1
	movq	-88(%rbp), %rax
	addq	$384, %rax
	vmovsd	(%rax), %xmm0
	vmulsd	-128(%rbp), %xmm0, %xmm0
	vaddsd	%xmm0, %xmm1, %xmm1
	movq	-88(%rbp), %rax
	addq	$504, %rax
	vmovsd	(%rax), %xmm0
	vmulsd	-120(%rbp), %xmm0, %xmm0
	vaddsd	%xmm0, %xmm1, %xmm1
	movq	-88(%rbp), %rax
	addq	$624, %rax
	vmovsd	(%rax), %xmm0
	vmulsd	-112(%rbp), %xmm0, %xmm0
	vaddsd	%xmm0, %xmm1, %xmm1
	movq	-88(%rbp), %rax
	addq	$744, %rax
	vmovsd	(%rax), %xmm0
	vmulsd	-104(%rbp), %xmm0, %xmm0
	vaddsd	%xmm0, %xmm1, %xmm1
	movq	-88(%rbp), %rax
	addq	$864, %rax
	vmovsd	(%rax), %xmm0
	vmulsd	-96(%rbp), %xmm0, %xmm0
	vaddsd	%xmm0, %xmm1, %xmm0
	vmovsd	-256(%rbp), %xmm1
	vaddsd	%xmm0, %xmm1, %xmm0
	vmovsd	%xmm0, -256(%rbp)
	.loc 4 857 0
	movq	-88(%rbp), %rax
	addq	$32, %rax
	vmovsd	(%rax), %xmm0
	vmulsd	-152(%rbp), %xmm0, %xmm1
	movq	-88(%rbp), %rax
	addq	$152, %rax
	vmovsd	(%rax), %xmm0
	vmulsd	-144(%rbp), %xmm0, %xmm0
	vaddsd	%xmm0, %xmm1, %xmm1
	movq	-88(%rbp), %rax
	addq	$272, %rax
	vmovsd	(%rax), %xmm0
	vmulsd	-136(%rbp), %xmm0, %xmm0
	vaddsd	%xmm0, %xmm1, %xmm1
	movq	-88(%rbp), %rax
	addq	$392, %rax
	vmovsd	(%rax), %xmm0
	vmulsd	-128(%rbp), %xmm0, %xmm0
	vaddsd	%xmm0, %xmm1, %xmm1
	movq	-88(%rbp), %rax
	addq	$512, %rax
	vmovsd	(%rax), %xmm0
	vmulsd	-120(%rbp), %xmm0, %xmm0
	vaddsd	%xmm0, %xmm1, %xmm1
	movq	-88(%rbp), %rax
	addq	$632, %rax
	vmovsd	(%rax), %xmm0
	vmulsd	-112(%rbp), %xmm0, %xmm0
	vaddsd	%xmm0, %xmm1, %xmm1
	movq	-88(%rbp), %rax
	addq	$752, %rax
	vmovsd	(%rax), %xmm0
	vmulsd	-104(%rbp), %xmm0, %xmm0
	vaddsd	%xmm0, %xmm1, %xmm1
	movq	-88(%rbp), %rax
	addq	$872, %rax
	vmovsd	(%rax), %xmm0
	vmulsd	-96(%rbp), %xmm0, %xmm0
	vaddsd	%xmm0, %xmm1, %xmm0
	vmovsd	-248(%rbp), %xmm1
	vaddsd	%xmm0, %xmm1, %xmm0
	vmovsd	%xmm0, -248(%rbp)
	.loc 4 858 0
	movq	-88(%rbp), %rax
	addq	$40, %rax
	vmovsd	(%rax), %xmm0
	vmulsd	-152(%rbp), %xmm0, %xmm1
	movq	-88(%rbp), %rax
	addq	$160, %rax
	vmovsd	(%rax), %xmm0
	vmulsd	-144(%rbp), %xmm0, %xmm0
	vaddsd	%xmm0, %xmm1, %xmm1
	movq	-88(%rbp), %rax
	addq	$280, %rax
	vmovsd	(%rax), %xmm0
	vmulsd	-136(%rbp), %xmm0, %xmm0
	vaddsd	%xmm0, %xmm1, %xmm1
	movq	-88(%rbp), %rax
	addq	$400, %rax
	vmovsd	(%rax), %xmm0
	vmulsd	-128(%rbp), %xmm0, %xmm0
	vaddsd	%xmm0, %xmm1, %xmm1
	movq	-88(%rbp), %rax
	addq	$520, %rax
	vmovsd	(%rax), %xmm0
	vmulsd	-120(%rbp), %xmm0, %xmm0
	vaddsd	%xmm0, %xmm1, %xmm1
	movq	-88(%rbp), %rax
	addq	$640, %rax
	vmovsd	(%rax), %xmm0
	vmulsd	-112(%rbp), %xmm0, %xmm0
	vaddsd	%xmm0, %xmm1, %xmm1
	movq	-88(%rbp), %rax
	addq	$760, %rax
	vmovsd	(%rax), %xmm0
	vmulsd	-104(%rbp), %xmm0, %xmm0
	vaddsd	%xmm0, %xmm1, %xmm1
	movq	-88(%rbp), %rax
	addq	$880, %rax
	vmovsd	(%rax), %xmm0
	vmulsd	-96(%rbp), %xmm0, %xmm0
	vaddsd	%xmm0, %xmm1, %xmm0
	vmovsd	-240(%rbp), %xmm1
	vaddsd	%xmm0, %xmm1, %xmm0
	vmovsd	%xmm0, -240(%rbp)
	.loc 4 859 0
	movq	-88(%rbp), %rax
	addq	$48, %rax
	vmovsd	(%rax), %xmm0
	vmulsd	-152(%rbp), %xmm0, %xmm1
	movq	-88(%rbp), %rax
	addq	$168, %rax
	vmovsd	(%rax), %xmm0
	vmulsd	-144(%rbp), %xmm0, %xmm0
	vaddsd	%xmm0, %xmm1, %xmm1
	movq	-88(%rbp), %rax
	addq	$288, %rax
	vmovsd	(%rax), %xmm0
	vmulsd	-136(%rbp), %xmm0, %xmm0
	vaddsd	%xmm0, %xmm1, %xmm1
	movq	-88(%rbp), %rax
	addq	$408, %rax
	vmovsd	(%rax), %xmm0
	vmulsd	-128(%rbp), %xmm0, %xmm0
	vaddsd	%xmm0, %xmm1, %xmm1
	movq	-88(%rbp), %rax
	addq	$528, %rax
	vmovsd	(%rax), %xmm0
	vmulsd	-120(%rbp), %xmm0, %xmm0
	vaddsd	%xmm0, %xmm1, %xmm1
	movq	-88(%rbp), %rax
	addq	$648, %rax
	vmovsd	(%rax), %xmm0
	vmulsd	-112(%rbp), %xmm0, %xmm0
	vaddsd	%xmm0, %xmm1, %xmm1
	movq	-88(%rbp), %rax
	addq	$768, %rax
	vmovsd	(%rax), %xmm0
	vmulsd	-104(%rbp), %xmm0, %xmm0
	vaddsd	%xmm0, %xmm1, %xmm1
	movq	-88(%rbp), %rax
	addq	$888, %rax
	vmovsd	(%rax), %xmm0
	vmulsd	-96(%rbp), %xmm0, %xmm0
	vaddsd	%xmm0, %xmm1, %xmm0
	vmovsd	-232(%rbp), %xmm1
	vaddsd	%xmm0, %xmm1, %xmm0
	vmovsd	%xmm0, -232(%rbp)
	.loc 4 860 0
	movq	-88(%rbp), %rax
	addq	$56, %rax
	vmovsd	(%rax), %xmm0
	vmulsd	-152(%rbp), %xmm0, %xmm1
	movq	-88(%rbp), %rax
	addq	$176, %rax
	vmovsd	(%rax), %xmm0
	vmulsd	-144(%rbp), %xmm0, %xmm0
	vaddsd	%xmm0, %xmm1, %xmm1
	movq	-88(%rbp), %rax
	addq	$296, %rax
	vmovsd	(%rax), %xmm0
	vmulsd	-136(%rbp), %xmm0, %xmm0
	vaddsd	%xmm0, %xmm1, %xmm1
	movq	-88(%rbp), %rax
	addq	$416, %rax
	vmovsd	(%rax), %xmm0
	vmulsd	-128(%rbp), %xmm0, %xmm0
	vaddsd	%xmm0, %xmm1, %xmm1
	movq	-88(%rbp), %rax
	addq	$536, %rax
	vmovsd	(%rax), %xmm0
	vmulsd	-120(%rbp), %xmm0, %xmm0
	vaddsd	%xmm0, %xmm1, %xmm1
	movq	-88(%rbp), %rax
	addq	$656, %rax
	vmovsd	(%rax), %xmm0
	vmulsd	-112(%rbp), %xmm0, %xmm0
	vaddsd	%xmm0, %xmm1, %xmm1
	movq	-88(%rbp), %rax
	addq	$776, %rax
	vmovsd	(%rax), %xmm0
	vmulsd	-104(%rbp), %xmm0, %xmm0
	vaddsd	%xmm0, %xmm1, %xmm1
	movq	-88(%rbp), %rax
	addq	$896, %rax
	vmovsd	(%rax), %xmm0
	vmulsd	-96(%rbp), %xmm0, %xmm0
	vaddsd	%xmm0, %xmm1, %xmm0
	vmovsd	-224(%rbp), %xmm1
	vaddsd	%xmm0, %xmm1, %xmm0
	vmovsd	%xmm0, -224(%rbp)
	.loc 4 861 0
	movq	-88(%rbp), %rax
	addq	$64, %rax
	vmovsd	(%rax), %xmm0
	vmulsd	-152(%rbp), %xmm0, %xmm1
	movq	-88(%rbp), %rax
	addq	$184, %rax
	vmovsd	(%rax), %xmm0
	vmulsd	-144(%rbp), %xmm0, %xmm0
	vaddsd	%xmm0, %xmm1, %xmm1
	movq	-88(%rbp), %rax
	addq	$304, %rax
	vmovsd	(%rax), %xmm0
	vmulsd	-136(%rbp), %xmm0, %xmm0
	vaddsd	%xmm0, %xmm1, %xmm1
	movq	-88(%rbp), %rax
	addq	$424, %rax
	vmovsd	(%rax), %xmm0
	vmulsd	-128(%rbp), %xmm0, %xmm0
	vaddsd	%xmm0, %xmm1, %xmm1
	movq	-88(%rbp), %rax
	addq	$544, %rax
	vmovsd	(%rax), %xmm0
	vmulsd	-120(%rbp), %xmm0, %xmm0
	vaddsd	%xmm0, %xmm1, %xmm1
	movq	-88(%rbp), %rax
	addq	$664, %rax
	vmovsd	(%rax), %xmm0
	vmulsd	-112(%rbp), %xmm0, %xmm0
	vaddsd	%xmm0, %xmm1, %xmm1
	movq	-88(%rbp), %rax
	addq	$784, %rax
	vmovsd	(%rax), %xmm0
	vmulsd	-104(%rbp), %xmm0, %xmm0
	vaddsd	%xmm0, %xmm1, %xmm1
	movq	-88(%rbp), %rax
	addq	$904, %rax
	vmovsd	(%rax), %xmm0
	vmulsd	-96(%rbp), %xmm0, %xmm0
	vaddsd	%xmm0, %xmm1, %xmm0
	vmovsd	-216(%rbp), %xmm1
	vaddsd	%xmm0, %xmm1, %xmm0
	vmovsd	%xmm0, -216(%rbp)
	.loc 4 862 0
	movq	-88(%rbp), %rax
	addq	$72, %rax
	vmovsd	(%rax), %xmm0
	vmulsd	-152(%rbp), %xmm0, %xmm1
	movq	-88(%rbp), %rax
	addq	$192, %rax
	vmovsd	(%rax), %xmm0
	vmulsd	-144(%rbp), %xmm0, %xmm0
	vaddsd	%xmm0, %xmm1, %xmm1
	movq	-88(%rbp), %rax
	addq	$312, %rax
	vmovsd	(%rax), %xmm0
	vmulsd	-136(%rbp), %xmm0, %xmm0
	vaddsd	%xmm0, %xmm1, %xmm1
	movq	-88(%rbp), %rax
	addq	$432, %rax
	vmovsd	(%rax), %xmm0
	vmulsd	-128(%rbp), %xmm0, %xmm0
	vaddsd	%xmm0, %xmm1, %xmm1
	movq	-88(%rbp), %rax
	addq	$552, %rax
	vmovsd	(%rax), %xmm0
	vmulsd	-120(%rbp), %xmm0, %xmm0
	vaddsd	%xmm0, %xmm1, %xmm1
	movq	-88(%rbp), %rax
	addq	$672, %rax
	vmovsd	(%rax), %xmm0
	vmulsd	-112(%rbp), %xmm0, %xmm0
	vaddsd	%xmm0, %xmm1, %xmm1
	movq	-88(%rbp), %rax
	addq	$792, %rax
	vmovsd	(%rax), %xmm0
	vmulsd	-104(%rbp), %xmm0, %xmm0
	vaddsd	%xmm0, %xmm1, %xmm1
	movq	-88(%rbp), %rax
	addq	$912, %rax
	vmovsd	(%rax), %xmm0
	vmulsd	-96(%rbp), %xmm0, %xmm0
	vaddsd	%xmm0, %xmm1, %xmm0
	vmovsd	-208(%rbp), %xmm1
	vaddsd	%xmm0, %xmm1, %xmm0
	vmovsd	%xmm0, -208(%rbp)
	.loc 4 863 0
	movq	-88(%rbp), %rax
	addq	$80, %rax
	vmovsd	(%rax), %xmm0
	vmulsd	-152(%rbp), %xmm0, %xmm1
	movq	-88(%rbp), %rax
	addq	$200, %rax
	vmovsd	(%rax), %xmm0
	vmulsd	-144(%rbp), %xmm0, %xmm0
	vaddsd	%xmm0, %xmm1, %xmm1
	movq	-88(%rbp), %rax
	addq	$320, %rax
	vmovsd	(%rax), %xmm0
	vmulsd	-136(%rbp), %xmm0, %xmm0
	vaddsd	%xmm0, %xmm1, %xmm1
	movq	-88(%rbp), %rax
	addq	$440, %rax
	vmovsd	(%rax), %xmm0
	vmulsd	-128(%rbp), %xmm0, %xmm0
	vaddsd	%xmm0, %xmm1, %xmm1
	movq	-88(%rbp), %rax
	addq	$560, %rax
	vmovsd	(%rax), %xmm0
	vmulsd	-120(%rbp), %xmm0, %xmm0
	vaddsd	%xmm0, %xmm1, %xmm1
	movq	-88(%rbp), %rax
	addq	$680, %rax
	vmovsd	(%rax), %xmm0
	vmulsd	-112(%rbp), %xmm0, %xmm0
	vaddsd	%xmm0, %xmm1, %xmm1
	movq	-88(%rbp), %rax
	addq	$800, %rax
	vmovsd	(%rax), %xmm0
	vmulsd	-104(%rbp), %xmm0, %xmm0
	vaddsd	%xmm0, %xmm1, %xmm1
	movq	-88(%rbp), %rax
	addq	$920, %rax
	vmovsd	(%rax), %xmm0
	vmulsd	-96(%rbp), %xmm0, %xmm0
	vaddsd	%xmm0, %xmm1, %xmm0
	vmovsd	-200(%rbp), %xmm1
	vaddsd	%xmm0, %xmm1, %xmm0
	vmovsd	%xmm0, -200(%rbp)
	.loc 4 864 0
	movq	-88(%rbp), %rax
	addq	$88, %rax
	vmovsd	(%rax), %xmm0
	vmulsd	-152(%rbp), %xmm0, %xmm1
	movq	-88(%rbp), %rax
	addq	$208, %rax
	vmovsd	(%rax), %xmm0
	vmulsd	-144(%rbp), %xmm0, %xmm0
	vaddsd	%xmm0, %xmm1, %xmm1
	movq	-88(%rbp), %rax
	addq	$328, %rax
	vmovsd	(%rax), %xmm0
	vmulsd	-136(%rbp), %xmm0, %xmm0
	vaddsd	%xmm0, %xmm1, %xmm1
	movq	-88(%rbp), %rax
	addq	$448, %rax
	vmovsd	(%rax), %xmm0
	vmulsd	-128(%rbp), %xmm0, %xmm0
	vaddsd	%xmm0, %xmm1, %xmm1
	movq	-88(%rbp), %rax
	addq	$568, %rax
	vmovsd	(%rax), %xmm0
	vmulsd	-120(%rbp), %xmm0, %xmm0
	vaddsd	%xmm0, %xmm1, %xmm1
	movq	-88(%rbp), %rax
	addq	$688, %rax
	vmovsd	(%rax), %xmm0
	vmulsd	-112(%rbp), %xmm0, %xmm0
	vaddsd	%xmm0, %xmm1, %xmm1
	movq	-88(%rbp), %rax
	addq	$808, %rax
	vmovsd	(%rax), %xmm0
	vmulsd	-104(%rbp), %xmm0, %xmm0
	vaddsd	%xmm0, %xmm1, %xmm1
	movq	-88(%rbp), %rax
	addq	$928, %rax
	vmovsd	(%rax), %xmm0
	vmulsd	-96(%rbp), %xmm0, %xmm0
	vaddsd	%xmm0, %xmm1, %xmm0
	vmovsd	-192(%rbp), %xmm1
	vaddsd	%xmm0, %xmm1, %xmm0
	vmovsd	%xmm0, -192(%rbp)
	.loc 4 865 0
	movq	-88(%rbp), %rax
	addq	$96, %rax
	vmovsd	(%rax), %xmm0
	vmulsd	-152(%rbp), %xmm0, %xmm1
	movq	-88(%rbp), %rax
	addq	$216, %rax
	vmovsd	(%rax), %xmm0
	vmulsd	-144(%rbp), %xmm0, %xmm0
	vaddsd	%xmm0, %xmm1, %xmm1
	movq	-88(%rbp), %rax
	addq	$336, %rax
	vmovsd	(%rax), %xmm0
	vmulsd	-136(%rbp), %xmm0, %xmm0
	vaddsd	%xmm0, %xmm1, %xmm1
	movq	-88(%rbp), %rax
	addq	$456, %rax
	vmovsd	(%rax), %xmm0
	vmulsd	-128(%rbp), %xmm0, %xmm0
	vaddsd	%xmm0, %xmm1, %xmm1
	movq	-88(%rbp), %rax
	addq	$576, %rax
	vmovsd	(%rax), %xmm0
	vmulsd	-120(%rbp), %xmm0, %xmm0
	vaddsd	%xmm0, %xmm1, %xmm1
	movq	-88(%rbp), %rax
	addq	$696, %rax
	vmovsd	(%rax), %xmm0
	vmulsd	-112(%rbp), %xmm0, %xmm0
	vaddsd	%xmm0, %xmm1, %xmm1
	movq	-88(%rbp), %rax
	addq	$816, %rax
	vmovsd	(%rax), %xmm0
	vmulsd	-104(%rbp), %xmm0, %xmm0
	vaddsd	%xmm0, %xmm1, %xmm1
	movq	-88(%rbp), %rax
	addq	$936, %rax
	vmovsd	(%rax), %xmm0
	vmulsd	-96(%rbp), %xmm0, %xmm0
	vaddsd	%xmm0, %xmm1, %xmm0
	vmovsd	-184(%rbp), %xmm1
	vaddsd	%xmm0, %xmm1, %xmm0
	vmovsd	%xmm0, -184(%rbp)
	.loc 4 866 0
	movq	-88(%rbp), %rax
	addq	$104, %rax
	vmovsd	(%rax), %xmm0
	vmulsd	-152(%rbp), %xmm0, %xmm1
	movq	-88(%rbp), %rax
	addq	$224, %rax
	vmovsd	(%rax), %xmm0
	vmulsd	-144(%rbp), %xmm0, %xmm0
	vaddsd	%xmm0, %xmm1, %xmm1
	movq	-88(%rbp), %rax
	addq	$344, %rax
	vmovsd	(%rax), %xmm0
	vmulsd	-136(%rbp), %xmm0, %xmm0
	vaddsd	%xmm0, %xmm1, %xmm1
	movq	-88(%rbp), %rax
	addq	$464, %rax
	vmovsd	(%rax), %xmm0
	vmulsd	-128(%rbp), %xmm0, %xmm0
	vaddsd	%xmm0, %xmm1, %xmm1
	movq	-88(%rbp), %rax
	addq	$584, %rax
	vmovsd	(%rax), %xmm0
	vmulsd	-120(%rbp), %xmm0, %xmm0
	vaddsd	%xmm0, %xmm1, %xmm1
	movq	-88(%rbp), %rax
	addq	$704, %rax
	vmovsd	(%rax), %xmm0
	vmulsd	-112(%rbp), %xmm0, %xmm0
	vaddsd	%xmm0, %xmm1, %xmm1
	movq	-88(%rbp), %rax
	addq	$824, %rax
	vmovsd	(%rax), %xmm0
	vmulsd	-104(%rbp), %xmm0, %xmm0
	vaddsd	%xmm0, %xmm1, %xmm1
	movq	-88(%rbp), %rax
	addq	$944, %rax
	vmovsd	(%rax), %xmm0
	vmulsd	-96(%rbp), %xmm0, %xmm0
	vaddsd	%xmm0, %xmm1, %xmm0
	vmovsd	-176(%rbp), %xmm1
	vaddsd	%xmm0, %xmm1, %xmm0
	vmovsd	%xmm0, -176(%rbp)
	.loc 4 867 0
	movq	-88(%rbp), %rax
	addq	$112, %rax
	vmovsd	(%rax), %xmm0
	vmulsd	-152(%rbp), %xmm0, %xmm1
	movq	-88(%rbp), %rax
	addq	$232, %rax
	vmovsd	(%rax), %xmm0
	vmulsd	-144(%rbp), %xmm0, %xmm0
	vaddsd	%xmm0, %xmm1, %xmm1
	movq	-88(%rbp), %rax
	addq	$352, %rax
	vmovsd	(%rax), %xmm0
	vmulsd	-136(%rbp), %xmm0, %xmm0
	vaddsd	%xmm0, %xmm1, %xmm1
	movq	-88(%rbp), %rax
	addq	$472, %rax
	vmovsd	(%rax), %xmm0
	vmulsd	-128(%rbp), %xmm0, %xmm0
	vaddsd	%xmm0, %xmm1, %xmm1
	movq	-88(%rbp), %rax
	addq	$592, %rax
	vmovsd	(%rax), %xmm0
	vmulsd	-120(%rbp), %xmm0, %xmm0
	vaddsd	%xmm0, %xmm1, %xmm1
	movq	-88(%rbp), %rax
	addq	$712, %rax
	vmovsd	(%rax), %xmm0
	vmulsd	-112(%rbp), %xmm0, %xmm0
	vaddsd	%xmm0, %xmm1, %xmm1
	movq	-88(%rbp), %rax
	addq	$832, %rax
	vmovsd	(%rax), %xmm0
	vmulsd	-104(%rbp), %xmm0, %xmm0
	vaddsd	%xmm0, %xmm1, %xmm1
	movq	-88(%rbp), %rax
	addq	$952, %rax
	vmovsd	(%rax), %xmm0
	vmulsd	-96(%rbp), %xmm0, %xmm0
	vaddsd	%xmm0, %xmm1, %xmm0
	vmovsd	-168(%rbp), %xmm1
	vaddsd	%xmm0, %xmm1, %xmm0
	vmovsd	%xmm0, -168(%rbp)
	.loc 4 868 0
	addq	$960, -88(%rbp)
	.loc 4 870 0
	movq	-160(%rbp), %rax
	addq	$64, %rax
	movq	(%rax), %rax
	movq	%rax, -152(%rbp)
	movq	-160(%rbp), %rax
	addq	$72, %rax
	movq	(%rax), %rax
	movq	%rax, -144(%rbp)
	movq	-160(%rbp), %rax
	addq	$80, %rax
	movq	(%rax), %rax
	movq	%rax, -136(%rbp)
	movq	-160(%rbp), %rax
	addq	$88, %rax
	movq	(%rax), %rax
	movq	%rax, -128(%rbp)
	movq	-160(%rbp), %rax
	addq	$96, %rax
	movq	(%rax), %rax
	movq	%rax, -120(%rbp)
	movq	-160(%rbp), %rax
	addq	$104, %rax
	movq	(%rax), %rax
	movq	%rax, -112(%rbp)
	movq	-160(%rbp), %rax
	addq	$112, %rax
	movq	(%rax), %rax
	movq	%rax, -104(%rbp)
	.loc 4 872 0
	movq	-88(%rbp), %rax
	vmovsd	(%rax), %xmm0
	vmulsd	-152(%rbp), %xmm0, %xmm1
	movq	-88(%rbp), %rax
	addq	$120, %rax
	vmovsd	(%rax), %xmm0
	vmulsd	-144(%rbp), %xmm0, %xmm0
	vaddsd	%xmm0, %xmm1, %xmm1
	movq	-88(%rbp), %rax
	addq	$240, %rax
	vmovsd	(%rax), %xmm0
	vmulsd	-136(%rbp), %xmm0, %xmm0
	vaddsd	%xmm0, %xmm1, %xmm1
	movq	-88(%rbp), %rax
	addq	$360, %rax
	vmovsd	(%rax), %xmm0
	vmulsd	-128(%rbp), %xmm0, %xmm0
	vaddsd	%xmm0, %xmm1, %xmm1
	movq	-88(%rbp), %rax
	addq	$480, %rax
	vmovsd	(%rax), %xmm0
	vmulsd	-120(%rbp), %xmm0, %xmm0
	vaddsd	%xmm0, %xmm1, %xmm1
	movq	-88(%rbp), %rax
	addq	$600, %rax
	vmovsd	(%rax), %xmm0
	vmulsd	-112(%rbp), %xmm0, %xmm0
	vaddsd	%xmm0, %xmm1, %xmm1
	movq	-88(%rbp), %rax
	addq	$720, %rax
	vmovsd	(%rax), %xmm0
	vmulsd	-104(%rbp), %xmm0, %xmm0
	vaddsd	%xmm0, %xmm1, %xmm0
	vmovsd	-280(%rbp), %xmm1
	vaddsd	%xmm0, %xmm1, %xmm0
	vmovsd	%xmm0, -280(%rbp)
	.loc 4 873 0
	movq	-88(%rbp), %rax
	addq	$8, %rax
	vmovsd	(%rax), %xmm0
	vmulsd	-152(%rbp), %xmm0, %xmm1
	movq	-88(%rbp), %rax
	subq	$-128, %rax
	vmovsd	(%rax), %xmm0
	vmulsd	-144(%rbp), %xmm0, %xmm0
	vaddsd	%xmm0, %xmm1, %xmm1
	movq	-88(%rbp), %rax
	addq	$248, %rax
	vmovsd	(%rax), %xmm0
	vmulsd	-136(%rbp), %xmm0, %xmm0
	vaddsd	%xmm0, %xmm1, %xmm1
	movq	-88(%rbp), %rax
	addq	$368, %rax
	vmovsd	(%rax), %xmm0
	vmulsd	-128(%rbp), %xmm0, %xmm0
	vaddsd	%xmm0, %xmm1, %xmm1
	movq	-88(%rbp), %rax
	addq	$488, %rax
	vmovsd	(%rax), %xmm0
	vmulsd	-120(%rbp), %xmm0, %xmm0
	vaddsd	%xmm0, %xmm1, %xmm1
	movq	-88(%rbp), %rax
	addq	$608, %rax
	vmovsd	(%rax), %xmm0
	vmulsd	-112(%rbp), %xmm0, %xmm0
	vaddsd	%xmm0, %xmm1, %xmm1
	movq	-88(%rbp), %rax
	addq	$728, %rax
	vmovsd	(%rax), %xmm0
	vmulsd	-104(%rbp), %xmm0, %xmm0
	vaddsd	%xmm0, %xmm1, %xmm0
	vmovsd	-272(%rbp), %xmm1
	vaddsd	%xmm0, %xmm1, %xmm0
	vmovsd	%xmm0, -272(%rbp)
	.loc 4 874 0
	movq	-88(%rbp), %rax
	addq	$16, %rax
	vmovsd	(%rax), %xmm0
	vmulsd	-152(%rbp), %xmm0, %xmm1
	movq	-88(%rbp), %rax
	addq	$136, %rax
	vmovsd	(%rax), %xmm0
	vmulsd	-144(%rbp), %xmm0, %xmm0
	vaddsd	%xmm0, %xmm1, %xmm1
	movq	-88(%rbp), %rax
	addq	$256, %rax
	vmovsd	(%rax), %xmm0
	vmulsd	-136(%rbp), %xmm0, %xmm0
	vaddsd	%xmm0, %xmm1, %xmm1
	movq	-88(%rbp), %rax
	addq	$376, %rax
	vmovsd	(%rax), %xmm0
	vmulsd	-128(%rbp), %xmm0, %xmm0
	vaddsd	%xmm0, %xmm1, %xmm1
	movq	-88(%rbp), %rax
	addq	$496, %rax
	vmovsd	(%rax), %xmm0
	vmulsd	-120(%rbp), %xmm0, %xmm0
	vaddsd	%xmm0, %xmm1, %xmm1
	movq	-88(%rbp), %rax
	addq	$616, %rax
	vmovsd	(%rax), %xmm0
	vmulsd	-112(%rbp), %xmm0, %xmm0
	vaddsd	%xmm0, %xmm1, %xmm1
	movq	-88(%rbp), %rax
	addq	$736, %rax
	vmovsd	(%rax), %xmm0
	vmulsd	-104(%rbp), %xmm0, %xmm0
	vaddsd	%xmm0, %xmm1, %xmm0
	vmovsd	-264(%rbp), %xmm1
	vaddsd	%xmm0, %xmm1, %xmm0
	vmovsd	%xmm0, -264(%rbp)
	.loc 4 875 0
	movq	-88(%rbp), %rax
	addq	$24, %rax
	vmovsd	(%rax), %xmm0
	vmulsd	-152(%rbp), %xmm0, %xmm1
	movq	-88(%rbp), %rax
	addq	$144, %rax
	vmovsd	(%rax), %xmm0
	vmulsd	-144(%rbp), %xmm0, %xmm0
	vaddsd	%xmm0, %xmm1, %xmm1
	movq	-88(%rbp), %rax
	addq	$264, %rax
	vmovsd	(%rax), %xmm0
	vmulsd	-136(%rbp), %xmm0, %xmm0
	vaddsd	%xmm0, %xmm1, %xmm1
	movq	-88(%rbp), %rax
	addq	$384, %rax
	vmovsd	(%rax), %xmm0
	vmulsd	-128(%rbp), %xmm0, %xmm0
	vaddsd	%xmm0, %xmm1, %xmm1
	movq	-88(%rbp), %rax
	addq	$504, %rax
	vmovsd	(%rax), %xmm0
	vmulsd	-120(%rbp), %xmm0, %xmm0
	vaddsd	%xmm0, %xmm1, %xmm1
	movq	-88(%rbp), %rax
	addq	$624, %rax
	vmovsd	(%rax), %xmm0
	vmulsd	-112(%rbp), %xmm0, %xmm0
	vaddsd	%xmm0, %xmm1, %xmm1
	movq	-88(%rbp), %rax
	addq	$744, %rax
	vmovsd	(%rax), %xmm0
	vmulsd	-104(%rbp), %xmm0, %xmm0
	vaddsd	%xmm0, %xmm1, %xmm0
	vmovsd	-256(%rbp), %xmm1
	vaddsd	%xmm0, %xmm1, %xmm0
	vmovsd	%xmm0, -256(%rbp)
	.loc 4 876 0
	movq	-88(%rbp), %rax
	addq	$32, %rax
	vmovsd	(%rax), %xmm0
	vmulsd	-152(%rbp), %xmm0, %xmm1
	movq	-88(%rbp), %rax
	addq	$152, %rax
	vmovsd	(%rax), %xmm0
	vmulsd	-144(%rbp), %xmm0, %xmm0
	vaddsd	%xmm0, %xmm1, %xmm1
	movq	-88(%rbp), %rax
	addq	$272, %rax
	vmovsd	(%rax), %xmm0
	vmulsd	-136(%rbp), %xmm0, %xmm0
	vaddsd	%xmm0, %xmm1, %xmm1
	movq	-88(%rbp), %rax
	addq	$392, %rax
	vmovsd	(%rax), %xmm0
	vmulsd	-128(%rbp), %xmm0, %xmm0
	vaddsd	%xmm0, %xmm1, %xmm1
	movq	-88(%rbp), %rax
	addq	$512, %rax
	vmovsd	(%rax), %xmm0
	vmulsd	-120(%rbp), %xmm0, %xmm0
	vaddsd	%xmm0, %xmm1, %xmm1
	movq	-88(%rbp), %rax
	addq	$632, %rax
	vmovsd	(%rax), %xmm0
	vmulsd	-112(%rbp), %xmm0, %xmm0
	vaddsd	%xmm0, %xmm1, %xmm1
	movq	-88(%rbp), %rax
	addq	$752, %rax
	vmovsd	(%rax), %xmm0
	vmulsd	-104(%rbp), %xmm0, %xmm0
	vaddsd	%xmm0, %xmm1, %xmm0
	vmovsd	-248(%rbp), %xmm1
	vaddsd	%xmm0, %xmm1, %xmm0
	vmovsd	%xmm0, -248(%rbp)
	.loc 4 877 0
	movq	-88(%rbp), %rax
	addq	$40, %rax
	vmovsd	(%rax), %xmm0
	vmulsd	-152(%rbp), %xmm0, %xmm1
	movq	-88(%rbp), %rax
	addq	$160, %rax
	vmovsd	(%rax), %xmm0
	vmulsd	-144(%rbp), %xmm0, %xmm0
	vaddsd	%xmm0, %xmm1, %xmm1
	movq	-88(%rbp), %rax
	addq	$280, %rax
	vmovsd	(%rax), %xmm0
	vmulsd	-136(%rbp), %xmm0, %xmm0
	vaddsd	%xmm0, %xmm1, %xmm1
	movq	-88(%rbp), %rax
	addq	$400, %rax
	vmovsd	(%rax), %xmm0
	vmulsd	-128(%rbp), %xmm0, %xmm0
	vaddsd	%xmm0, %xmm1, %xmm1
	movq	-88(%rbp), %rax
	addq	$520, %rax
	vmovsd	(%rax), %xmm0
	vmulsd	-120(%rbp), %xmm0, %xmm0
	vaddsd	%xmm0, %xmm1, %xmm1
	movq	-88(%rbp), %rax
	addq	$640, %rax
	vmovsd	(%rax), %xmm0
	vmulsd	-112(%rbp), %xmm0, %xmm0
	vaddsd	%xmm0, %xmm1, %xmm1
	movq	-88(%rbp), %rax
	addq	$760, %rax
	vmovsd	(%rax), %xmm0
	vmulsd	-104(%rbp), %xmm0, %xmm0
	vaddsd	%xmm0, %xmm1, %xmm0
	vmovsd	-240(%rbp), %xmm1
	vaddsd	%xmm0, %xmm1, %xmm0
	vmovsd	%xmm0, -240(%rbp)
	.loc 4 878 0
	movq	-88(%rbp), %rax
	addq	$48, %rax
	vmovsd	(%rax), %xmm0
	vmulsd	-152(%rbp), %xmm0, %xmm1
	movq	-88(%rbp), %rax
	addq	$168, %rax
	vmovsd	(%rax), %xmm0
	vmulsd	-144(%rbp), %xmm0, %xmm0
	vaddsd	%xmm0, %xmm1, %xmm1
	movq	-88(%rbp), %rax
	addq	$288, %rax
	vmovsd	(%rax), %xmm0
	vmulsd	-136(%rbp), %xmm0, %xmm0
	vaddsd	%xmm0, %xmm1, %xmm1
	movq	-88(%rbp), %rax
	addq	$408, %rax
	vmovsd	(%rax), %xmm0
	vmulsd	-128(%rbp), %xmm0, %xmm0
	vaddsd	%xmm0, %xmm1, %xmm1
	movq	-88(%rbp), %rax
	addq	$528, %rax
	vmovsd	(%rax), %xmm0
	vmulsd	-120(%rbp), %xmm0, %xmm0
	vaddsd	%xmm0, %xmm1, %xmm1
	movq	-88(%rbp), %rax
	addq	$648, %rax
	vmovsd	(%rax), %xmm0
	vmulsd	-112(%rbp), %xmm0, %xmm0
	vaddsd	%xmm0, %xmm1, %xmm1
	movq	-88(%rbp), %rax
	addq	$768, %rax
	vmovsd	(%rax), %xmm0
	vmulsd	-104(%rbp), %xmm0, %xmm0
	vaddsd	%xmm0, %xmm1, %xmm0
	vmovsd	-232(%rbp), %xmm1
	vaddsd	%xmm0, %xmm1, %xmm0
	vmovsd	%xmm0, -232(%rbp)
	.loc 4 879 0
	movq	-88(%rbp), %rax
	addq	$56, %rax
	vmovsd	(%rax), %xmm0
	vmulsd	-152(%rbp), %xmm0, %xmm1
	movq	-88(%rbp), %rax
	addq	$176, %rax
	vmovsd	(%rax), %xmm0
	vmulsd	-144(%rbp), %xmm0, %xmm0
	vaddsd	%xmm0, %xmm1, %xmm1
	movq	-88(%rbp), %rax
	addq	$296, %rax
	vmovsd	(%rax), %xmm0
	vmulsd	-136(%rbp), %xmm0, %xmm0
	vaddsd	%xmm0, %xmm1, %xmm1
	movq	-88(%rbp), %rax
	addq	$416, %rax
	vmovsd	(%rax), %xmm0
	vmulsd	-128(%rbp), %xmm0, %xmm0
	vaddsd	%xmm0, %xmm1, %xmm1
	movq	-88(%rbp), %rax
	addq	$536, %rax
	vmovsd	(%rax), %xmm0
	vmulsd	-120(%rbp), %xmm0, %xmm0
	vaddsd	%xmm0, %xmm1, %xmm1
	movq	-88(%rbp), %rax
	addq	$656, %rax
	vmovsd	(%rax), %xmm0
	vmulsd	-112(%rbp), %xmm0, %xmm0
	vaddsd	%xmm0, %xmm1, %xmm1
	movq	-88(%rbp), %rax
	addq	$776, %rax
	vmovsd	(%rax), %xmm0
	vmulsd	-104(%rbp), %xmm0, %xmm0
	vaddsd	%xmm0, %xmm1, %xmm0
	vmovsd	-224(%rbp), %xmm1
	vaddsd	%xmm0, %xmm1, %xmm0
	vmovsd	%xmm0, -224(%rbp)
	.loc 4 880 0
	movq	-88(%rbp), %rax
	addq	$64, %rax
	vmovsd	(%rax), %xmm0
	vmulsd	-152(%rbp), %xmm0, %xmm1
	movq	-88(%rbp), %rax
	addq	$184, %rax
	vmovsd	(%rax), %xmm0
	vmulsd	-144(%rbp), %xmm0, %xmm0
	vaddsd	%xmm0, %xmm1, %xmm1
	movq	-88(%rbp), %rax
	addq	$304, %rax
	vmovsd	(%rax), %xmm0
	vmulsd	-136(%rbp), %xmm0, %xmm0
	vaddsd	%xmm0, %xmm1, %xmm1
	movq	-88(%rbp), %rax
	addq	$424, %rax
	vmovsd	(%rax), %xmm0
	vmulsd	-128(%rbp), %xmm0, %xmm0
	vaddsd	%xmm0, %xmm1, %xmm1
	movq	-88(%rbp), %rax
	addq	$544, %rax
	vmovsd	(%rax), %xmm0
	vmulsd	-120(%rbp), %xmm0, %xmm0
	vaddsd	%xmm0, %xmm1, %xmm1
	movq	-88(%rbp), %rax
	addq	$664, %rax
	vmovsd	(%rax), %xmm0
	vmulsd	-112(%rbp), %xmm0, %xmm0
	vaddsd	%xmm0, %xmm1, %xmm1
	movq	-88(%rbp), %rax
	addq	$784, %rax
	vmovsd	(%rax), %xmm0
	vmulsd	-104(%rbp), %xmm0, %xmm0
	vaddsd	%xmm0, %xmm1, %xmm0
	vmovsd	-216(%rbp), %xmm1
	vaddsd	%xmm0, %xmm1, %xmm0
	vmovsd	%xmm0, -216(%rbp)
	.loc 4 881 0
	movq	-88(%rbp), %rax
	addq	$72, %rax
	vmovsd	(%rax), %xmm0
	vmulsd	-152(%rbp), %xmm0, %xmm1
	movq	-88(%rbp), %rax
	addq	$192, %rax
	vmovsd	(%rax), %xmm0
	vmulsd	-144(%rbp), %xmm0, %xmm0
	vaddsd	%xmm0, %xmm1, %xmm1
	movq	-88(%rbp), %rax
	addq	$312, %rax
	vmovsd	(%rax), %xmm0
	vmulsd	-136(%rbp), %xmm0, %xmm0
	vaddsd	%xmm0, %xmm1, %xmm1
	movq	-88(%rbp), %rax
	addq	$432, %rax
	vmovsd	(%rax), %xmm0
	vmulsd	-128(%rbp), %xmm0, %xmm0
	vaddsd	%xmm0, %xmm1, %xmm1
	movq	-88(%rbp), %rax
	addq	$552, %rax
	vmovsd	(%rax), %xmm0
	vmulsd	-120(%rbp), %xmm0, %xmm0
	vaddsd	%xmm0, %xmm1, %xmm1
	movq	-88(%rbp), %rax
	addq	$672, %rax
	vmovsd	(%rax), %xmm0
	vmulsd	-112(%rbp), %xmm0, %xmm0
	vaddsd	%xmm0, %xmm1, %xmm1
	movq	-88(%rbp), %rax
	addq	$792, %rax
	vmovsd	(%rax), %xmm0
	vmulsd	-104(%rbp), %xmm0, %xmm0
	vaddsd	%xmm0, %xmm1, %xmm0
	vmovsd	-208(%rbp), %xmm1
	vaddsd	%xmm0, %xmm1, %xmm0
	vmovsd	%xmm0, -208(%rbp)
	.loc 4 882 0
	movq	-88(%rbp), %rax
	addq	$80, %rax
	vmovsd	(%rax), %xmm0
	vmulsd	-152(%rbp), %xmm0, %xmm1
	movq	-88(%rbp), %rax
	addq	$200, %rax
	vmovsd	(%rax), %xmm0
	vmulsd	-144(%rbp), %xmm0, %xmm0
	vaddsd	%xmm0, %xmm1, %xmm1
	movq	-88(%rbp), %rax
	addq	$320, %rax
	vmovsd	(%rax), %xmm0
	vmulsd	-136(%rbp), %xmm0, %xmm0
	vaddsd	%xmm0, %xmm1, %xmm1
	movq	-88(%rbp), %rax
	addq	$440, %rax
	vmovsd	(%rax), %xmm0
	vmulsd	-128(%rbp), %xmm0, %xmm0
	vaddsd	%xmm0, %xmm1, %xmm1
	movq	-88(%rbp), %rax
	addq	$560, %rax
	vmovsd	(%rax), %xmm0
	vmulsd	-120(%rbp), %xmm0, %xmm0
	vaddsd	%xmm0, %xmm1, %xmm1
	movq	-88(%rbp), %rax
	addq	$680, %rax
	vmovsd	(%rax), %xmm0
	vmulsd	-112(%rbp), %xmm0, %xmm0
	vaddsd	%xmm0, %xmm1, %xmm1
	movq	-88(%rbp), %rax
	addq	$800, %rax
	vmovsd	(%rax), %xmm0
	vmulsd	-104(%rbp), %xmm0, %xmm0
	vaddsd	%xmm0, %xmm1, %xmm0
	vmovsd	-200(%rbp), %xmm1
	vaddsd	%xmm0, %xmm1, %xmm0
	vmovsd	%xmm0, -200(%rbp)
	.loc 4 883 0
	movq	-88(%rbp), %rax
	addq	$88, %rax
	vmovsd	(%rax), %xmm0
	vmulsd	-152(%rbp), %xmm0, %xmm1
	movq	-88(%rbp), %rax
	addq	$208, %rax
	vmovsd	(%rax), %xmm0
	vmulsd	-144(%rbp), %xmm0, %xmm0
	vaddsd	%xmm0, %xmm1, %xmm1
	movq	-88(%rbp), %rax
	addq	$328, %rax
	vmovsd	(%rax), %xmm0
	vmulsd	-136(%rbp), %xmm0, %xmm0
	vaddsd	%xmm0, %xmm1, %xmm1
	movq	-88(%rbp), %rax
	addq	$448, %rax
	vmovsd	(%rax), %xmm0
	vmulsd	-128(%rbp), %xmm0, %xmm0
	vaddsd	%xmm0, %xmm1, %xmm1
	movq	-88(%rbp), %rax
	addq	$568, %rax
	vmovsd	(%rax), %xmm0
	vmulsd	-120(%rbp), %xmm0, %xmm0
	vaddsd	%xmm0, %xmm1, %xmm1
	movq	-88(%rbp), %rax
	addq	$688, %rax
	vmovsd	(%rax), %xmm0
	vmulsd	-112(%rbp), %xmm0, %xmm0
	vaddsd	%xmm0, %xmm1, %xmm1
	movq	-88(%rbp), %rax
	addq	$808, %rax
	vmovsd	(%rax), %xmm0
	vmulsd	-104(%rbp), %xmm0, %xmm0
	vaddsd	%xmm0, %xmm1, %xmm0
	vmovsd	-192(%rbp), %xmm1
	vaddsd	%xmm0, %xmm1, %xmm0
	vmovsd	%xmm0, -192(%rbp)
	.loc 4 884 0
	movq	-88(%rbp), %rax
	addq	$96, %rax
	vmovsd	(%rax), %xmm0
	vmulsd	-152(%rbp), %xmm0, %xmm1
	movq	-88(%rbp), %rax
	addq	$216, %rax
	vmovsd	(%rax), %xmm0
	vmulsd	-144(%rbp), %xmm0, %xmm0
	vaddsd	%xmm0, %xmm1, %xmm1
	movq	-88(%rbp), %rax
	addq	$336, %rax
	vmovsd	(%rax), %xmm0
	vmulsd	-136(%rbp), %xmm0, %xmm0
	vaddsd	%xmm0, %xmm1, %xmm1
	movq	-88(%rbp), %rax
	addq	$456, %rax
	vmovsd	(%rax), %xmm0
	vmulsd	-128(%rbp), %xmm0, %xmm0
	vaddsd	%xmm0, %xmm1, %xmm1
	movq	-88(%rbp), %rax
	addq	$576, %rax
	vmovsd	(%rax), %xmm0
	vmulsd	-120(%rbp), %xmm0, %xmm0
	vaddsd	%xmm0, %xmm1, %xmm1
	movq	-88(%rbp), %rax
	addq	$696, %rax
	vmovsd	(%rax), %xmm0
	vmulsd	-112(%rbp), %xmm0, %xmm0
	vaddsd	%xmm0, %xmm1, %xmm1
	movq	-88(%rbp), %rax
	addq	$816, %rax
	vmovsd	(%rax), %xmm0
	vmulsd	-104(%rbp), %xmm0, %xmm0
	vaddsd	%xmm0, %xmm1, %xmm0
	vmovsd	-184(%rbp), %xmm1
	vaddsd	%xmm0, %xmm1, %xmm0
	vmovsd	%xmm0, -184(%rbp)
	.loc 4 885 0
	movq	-88(%rbp), %rax
	addq	$104, %rax
	vmovsd	(%rax), %xmm0
	vmulsd	-152(%rbp), %xmm0, %xmm1
	movq	-88(%rbp), %rax
	addq	$224, %rax
	vmovsd	(%rax), %xmm0
	vmulsd	-144(%rbp), %xmm0, %xmm0
	vaddsd	%xmm0, %xmm1, %xmm1
	movq	-88(%rbp), %rax
	addq	$344, %rax
	vmovsd	(%rax), %xmm0
	vmulsd	-136(%rbp), %xmm0, %xmm0
	vaddsd	%xmm0, %xmm1, %xmm1
	movq	-88(%rbp), %rax
	addq	$464, %rax
	vmovsd	(%rax), %xmm0
	vmulsd	-128(%rbp), %xmm0, %xmm0
	vaddsd	%xmm0, %xmm1, %xmm1
	movq	-88(%rbp), %rax
	addq	$584, %rax
	vmovsd	(%rax), %xmm0
	vmulsd	-120(%rbp), %xmm0, %xmm0
	vaddsd	%xmm0, %xmm1, %xmm1
	movq	-88(%rbp), %rax
	addq	$704, %rax
	vmovsd	(%rax), %xmm0
	vmulsd	-112(%rbp), %xmm0, %xmm0
	vaddsd	%xmm0, %xmm1, %xmm1
	movq	-88(%rbp), %rax
	addq	$824, %rax
	vmovsd	(%rax), %xmm0
	vmulsd	-104(%rbp), %xmm0, %xmm0
	vaddsd	%xmm0, %xmm1, %xmm0
	vmovsd	-176(%rbp), %xmm1
	vaddsd	%xmm0, %xmm1, %xmm0
	vmovsd	%xmm0, -176(%rbp)
	.loc 4 886 0
	movq	-88(%rbp), %rax
	addq	$112, %rax
	vmovsd	(%rax), %xmm0
	vmulsd	-152(%rbp), %xmm0, %xmm1
	movq	-88(%rbp), %rax
	addq	$232, %rax
	vmovsd	(%rax), %xmm0
	vmulsd	-144(%rbp), %xmm0, %xmm0
	vaddsd	%xmm0, %xmm1, %xmm1
	movq	-88(%rbp), %rax
	addq	$352, %rax
	vmovsd	(%rax), %xmm0
	vmulsd	-136(%rbp), %xmm0, %xmm0
	vaddsd	%xmm0, %xmm1, %xmm1
	movq	-88(%rbp), %rax
	addq	$472, %rax
	vmovsd	(%rax), %xmm0
	vmulsd	-128(%rbp), %xmm0, %xmm0
	vaddsd	%xmm0, %xmm1, %xmm1
	movq	-88(%rbp), %rax
	addq	$592, %rax
	vmovsd	(%rax), %xmm0
	vmulsd	-120(%rbp), %xmm0, %xmm0
	vaddsd	%xmm0, %xmm1, %xmm1
	movq	-88(%rbp), %rax
	addq	$712, %rax
	vmovsd	(%rax), %xmm0
	vmulsd	-112(%rbp), %xmm0, %xmm0
	vaddsd	%xmm0, %xmm1, %xmm1
	movq	-88(%rbp), %rax
	addq	$832, %rax
	vmovsd	(%rax), %xmm0
	vmulsd	-104(%rbp), %xmm0, %xmm0
	vaddsd	%xmm0, %xmm1, %xmm0
	vmovsd	-168(%rbp), %xmm1
	vaddsd	%xmm0, %xmm1, %xmm0
	vmovsd	%xmm0, -168(%rbp)
	.loc 4 887 0
	addq	$840, -88(%rbp)
	.loc 4 848 0
	addl	$1, -40(%rbp)
.L456:
	movl	-40(%rbp), %eax
	cmpl	-36(%rbp), %eax
	jl	.L457
	.loc 4 889 0
	cmpl	$0, -20(%rbp)
	je	.L458
	movq	-312(%rbp), %rdx
	movl	-44(%rbp), %eax
	cltq
	salq	$2, %rax
	addq	-32(%rbp), %rax
	movl	(%rax), %eax
	cltq
	salq	$3, %rax
	movq	%rax, %rcx
	salq	$4, %rcx
	movq	%rcx, %rbx
	subq	%rax, %rbx
	movq	%rbx, %rax
	leaq	(%rdx,%rax), %rax
	movq	%rax, -288(%rbp)
.L458:
	.loc 4 890 0
	movq	-288(%rbp), %rax
	movq	-280(%rbp), %rdx
	movq	%rdx, (%rax)
	movq	-288(%rbp), %rax
	leaq	8(%rax), %rdx
	movq	-272(%rbp), %rax
	movq	%rax, (%rdx)
	movq	-288(%rbp), %rax
	leaq	16(%rax), %rdx
	movq	-264(%rbp), %rax
	movq	%rax, (%rdx)
	movq	-288(%rbp), %rax
	leaq	24(%rax), %rdx
	movq	-256(%rbp), %rax
	movq	%rax, (%rdx)
	movq	-288(%rbp), %rax
	leaq	32(%rax), %rdx
	movq	-248(%rbp), %rax
	movq	%rax, (%rdx)
	movq	-288(%rbp), %rax
	leaq	40(%rax), %rdx
	movq	-240(%rbp), %rax
	movq	%rax, (%rdx)
	movq	-288(%rbp), %rax
	leaq	48(%rax), %rdx
	movq	-232(%rbp), %rax
	movq	%rax, (%rdx)
	.loc 4 891 0
	movq	-288(%rbp), %rax
	leaq	56(%rax), %rdx
	movq	-224(%rbp), %rax
	movq	%rax, (%rdx)
	movq	-288(%rbp), %rax
	leaq	64(%rax), %rdx
	movq	-216(%rbp), %rax
	movq	%rax, (%rdx)
	movq	-288(%rbp), %rax
	leaq	72(%rax), %rdx
	movq	-208(%rbp), %rax
	movq	%rax, (%rdx)
	movq	-288(%rbp), %rax
	leaq	80(%rax), %rdx
	movq	-200(%rbp), %rax
	movq	%rax, (%rdx)
	movq	-288(%rbp), %rax
	leaq	88(%rax), %rdx
	movq	-192(%rbp), %rax
	movq	%rax, (%rdx)
	movq	-288(%rbp), %rax
	leaq	96(%rax), %rdx
	movq	-184(%rbp), %rax
	movq	%rax, (%rdx)
	movq	-288(%rbp), %rax
	leaq	104(%rax), %rdx
	movq	-176(%rbp), %rax
	movq	%rax, (%rdx)
	movq	-288(%rbp), %rax
	leaq	112(%rax), %rdx
	movq	-168(%rbp), %rax
	movq	%rax, (%rdx)
	.loc 4 893 0
	cmpl	$0, -20(%rbp)
	jne	.L459
	addq	$120, -288(%rbp)
.L459:
	.loc 4 841 0
	addl	$1, -44(%rbp)
.L455:
	movl	-44(%rbp), %eax
	cmpl	-48(%rbp), %eax
	jl	.L460
	.loc 4 896 0
	leaq	-304(%rbp), %rdx
	movq	-336(%rbp), %rax
	movq	%rdx, %rsi
	movq	%rax, %rdi
	call	VecRestoreArrayRead
	movl	%eax, -76(%rbp)
	cmpl	$0, -76(%rbp)
	setne	%al
	movzbl	%al, %eax
	testq	%rax, %rax
	je	.L461
	movl	-76(%rbp), %eax
	movq	$.LC5, 8(%rsp)
	movl	$1, (%rsp)
	movl	%eax, %r9d
	movl	$.LC3, %r8d
	movl	$.LC6, %ecx
	movl	$__func__.28485, %edx
	movl	$896, %esi
	movl	$1140850689, %edi
	movl	$0, %eax
	call	PetscError
	jmp	.L451
.L461:
	.loc 4 897 0
	leaq	-312(%rbp), %rdx
	movq	-344(%rbp), %rax
	movq	%rdx, %rsi
	movq	%rax, %rdi
	call	VecRestoreArray
	movl	%eax, -76(%rbp)
	cmpl	$0, -76(%rbp)
	setne	%al
	movzbl	%al, %eax
	testq	%rax, %rax
	je	.L462
	movl	-76(%rbp), %eax
	movq	$.LC5, 8(%rsp)
	movl	$1, (%rsp)
	movl	%eax, %r9d
	movl	$.LC3, %r8d
	movl	$.LC6, %ecx
	movl	$__func__.28485, %edx
	movl	$897, %esi
	movl	$1140850689, %edi
	movl	$0, %eax
	call	PetscError
	jmp	.L451
.L462:
	.loc 4 898 0
	movq	-296(%rbp), %rax
	movl	128(%rax), %eax
	vcvtsi2sd	%eax, %xmm0, %xmm0
	vmovsd	.LC26(%rip), %xmm1
	vmulsd	%xmm1, %xmm0, %xmm1
	vcvtsi2sd	-24(%rbp), %xmm0, %xmm0
	vmovsd	.LC27(%rip), %xmm2
	vmulsd	%xmm2, %xmm0, %xmm0
	vaddsd	%xmm0, %xmm1, %xmm0
	vmovsd	_TotalFlops(%rip), %xmm1
	vaddsd	%xmm1, %xmm0, %xmm0
	vmovsd	%xmm0, _TotalFlops(%rip)
	movl	$0, -76(%rbp)
	cmpl	$0, -76(%rbp)
	setne	%al
	movzbl	%al, %eax
	testq	%rax, %rax
	je	.L463
	movl	-76(%rbp), %eax
	movq	$.LC5, 8(%rsp)
	movl	$1, (%rsp)
	movl	%eax, %r9d
	movl	$.LC3, %r8d
	movl	$.LC6, %ecx
	movl	$__func__.28485, %edx
	movl	$898, %esi
	movl	$1140850689, %edi
	movl	$0, %eax
	call	PetscError
	jmp	.L451
.L463:
	.loc 4 899 0
	movq	petscstack(%rip), %rax
	testq	%rax, %rax
	je	.L464
	movq	petscstack(%rip), %rax
	movl	1792(%rax), %eax
	testl	%eax, %eax
	jle	.L464
	movq	petscstack(%rip), %rax
	movl	1792(%rax), %edx
	subl	$1, %edx
	movl	%edx, 1792(%rax)
	movq	petscstack(%rip), %rax
	movq	petscstack(%rip), %rdx
	movl	1792(%rdx), %edx
	movslq	%edx, %rdx
	movq	$0, (%rax,%rdx,8)
	movq	petscstack(%rip), %rax
	movq	petscstack(%rip), %rdx
	movl	1792(%rdx), %edx
	movslq	%edx, %rdx
	addq	$64, %rdx
	movq	$0, (%rax,%rdx,8)
	movq	petscstack(%rip), %rax
	movq	petscstack(%rip), %rdx
	movl	1792(%rdx), %edx
	movslq	%edx, %rdx
	subq	$-128, %rdx
	movq	$0, (%rax,%rdx,8)
	movq	petscstack(%rip), %rax
	movq	petscstack(%rip), %rdx
	movl	1792(%rdx), %edx
	movslq	%edx, %rdx
	addq	$384, %rdx
	movl	$0, (%rax,%rdx,4)
.L464:
	movl	$0, %eax
.L451:
	.loc 4 900 0
	addq	$360, %rsp
	popq	%rbx
	leave
	.cfi_def_cfa 7, 8
	ret
	.cfi_endproc
.LFE75:
	.size	MatMult_SeqBAIJ_15_ver3, .-MatMult_SeqBAIJ_15_ver3
.globl MatMult_SeqBAIJ_15_ver4
	.type	MatMult_SeqBAIJ_15_ver4, @function
MatMult_SeqBAIJ_15_ver4:
.LFB76:
	.loc 4 907 0
	.cfi_startproc
	pushq	%rbp
	.cfi_def_cfa_offset 16
	.cfi_offset 6, -16
	movq	%rsp, %rbp
	.cfi_def_cfa_register 6
	pushq	%rbx
	subq	$408, %rsp
	movq	%rdi, -376(%rbp)
	movq	%rsi, -384(%rbp)
	movq	%rdx, -392(%rbp)
	.loc 4 908 0
	movq	-376(%rbp), %rax
	movq	472(%rax), %rax
	movq	%rax, -352(%rbp)
	.loc 4 909 0
	movq	$0, -344(%rbp)
	.loc 4 914 0
	movq	-352(%rbp), %rax
	movq	144(%rax), %rax
	movq	%rax, -64(%rbp)
	.loc 4 915 0
	movq	$0, -32(%rbp)
	movl	$0, -24(%rbp)
	.loc 4 916 0
	movq	-352(%rbp), %rax
	movl	100(%rax), %eax
	movl	%eax, -20(%rbp)
	.loc 4 918 0
	movq	petscstack(%rip), %rax
	testq	%rax, %rax
	je	.L488
	.cfi_offset 3, -24
	movq	petscstack(%rip), %rax
	movl	1792(%rax), %eax
	cmpl	$63, %eax
	jg	.L489
	movq	petscstack(%rip), %rax
	movq	petscstack(%rip), %rdx
	movl	1792(%rdx), %edx
	movslq	%edx, %rdx
	movq	$__func__.29563, (%rax,%rdx,8)
	movq	petscstack(%rip), %rax
	movq	petscstack(%rip), %rdx
	movl	1792(%rdx), %edx
	movslq	%edx, %rdx
	addq	$64, %rdx
	movq	$.LC6, (%rax,%rdx,8)
	movq	petscstack(%rip), %rax
	movq	petscstack(%rip), %rdx
	movl	1792(%rdx), %edx
	movslq	%edx, %rdx
	subq	$-128, %rdx
	movq	$.LC3, (%rax,%rdx,8)
	movq	petscstack(%rip), %rax
	movq	petscstack(%rip), %rdx
	movl	1792(%rdx), %edx
	movslq	%edx, %rdx
	addq	$384, %rdx
	movl	$918, (%rax,%rdx,4)
	movq	petscstack(%rip), %rax
	movl	1792(%rax), %edx
	addl	$1, %edx
	movl	%edx, 1792(%rax)
	jmp	.L487
.L488:
	nop
	jmp	.L487
.L489:
	nop
.L487:
	.loc 4 919 0
	leaq	-360(%rbp), %rdx
	movq	-384(%rbp), %rax
	movq	%rdx, %rsi
	movq	%rax, %rdi
	call	VecGetArrayRead
	movl	%eax, -76(%rbp)
	cmpl	$0, -76(%rbp)
	setne	%al
	movzbl	%al, %eax
	testq	%rax, %rax
	je	.L471
	movl	-76(%rbp), %eax
	movq	$.LC5, 8(%rsp)
	movl	$1, (%rsp)
	movl	%eax, %r9d
	movl	$.LC3, %r8d
	movl	$.LC6, %ecx
	movl	$__func__.29563, %edx
	movl	$919, %esi
	movl	$1140850689, %edi
	movl	$0, %eax
	call	PetscError
	jmp	.L472
.L471:
	.loc 4 920 0
	leaq	-368(%rbp), %rdx
	movq	-392(%rbp), %rax
	movq	%rdx, %rsi
	movq	%rax, %rdi
	call	VecGetArray
	movl	%eax, -76(%rbp)
	cmpl	$0, -76(%rbp)
	setne	%al
	movzbl	%al, %eax
	testq	%rax, %rax
	je	.L473
	movl	-76(%rbp), %eax
	movq	$.LC5, 8(%rsp)
	movl	$1, (%rsp)
	movl	%eax, %r9d
	movl	$.LC3, %r8d
	movl	$.LC6, %ecx
	movl	$__func__.29563, %edx
	movl	$920, %esi
	movl	$1140850689, %edi
	movl	$0, %eax
	call	PetscError
	jmp	.L472
.L473:
	.loc 4 922 0
	movq	-352(%rbp), %rax
	movq	168(%rax), %rax
	movq	%rax, -88(%rbp)
	.loc 4 923 0
	cmpl	$0, -20(%rbp)
	je	.L474
	.loc 4 924 0
	movq	-352(%rbp), %rax
	movl	104(%rax), %eax
	movl	%eax, -48(%rbp)
	.loc 4 925 0
	movq	-352(%rbp), %rax
	movq	112(%rax), %rax
	movq	%rax, -72(%rbp)
	.loc 4 926 0
	movq	-352(%rbp), %rax
	movq	120(%rax), %rax
	movq	%rax, -32(%rbp)
	jmp	.L475
.L474:
	.loc 4 928 0
	movq	-352(%rbp), %rax
	movl	228(%rax), %eax
	movl	%eax, -48(%rbp)
	.loc 4 929 0
	movq	-352(%rbp), %rax
	movq	136(%rax), %rax
	movq	%rax, -72(%rbp)
	.loc 4 930 0
	movq	-368(%rbp), %rax
	movq	%rax, -344(%rbp)
.L475:
	.loc 4 933 0
	movl	$0, -44(%rbp)
	jmp	.L476
.L481:
	.loc 4 934 0
	movl	-44(%rbp), %eax
	cltq
	addq	$1, %rax
	salq	$2, %rax
	addq	-72(%rbp), %rax
	movl	(%rax), %edx
	movl	-44(%rbp), %eax
	cltq
	salq	$2, %rax
	addq	-72(%rbp), %rax
	movl	(%rax), %eax
	movl	%edx, %ecx
	subl	%eax, %ecx
	movl	%ecx, %eax
	movl	%eax, -36(%rbp)
	.loc 4 935 0
	movl	-44(%rbp), %eax
	cltq
	salq	$2, %rax
	addq	-72(%rbp), %rax
	movl	(%rax), %eax
	cltq
	salq	$2, %rax
	addq	-64(%rbp), %rax
	movq	%rax, -56(%rbp)
	.loc 4 936 0
	movl	$0, %eax
	movq	%rax, -336(%rbp)
	movl	$0, %eax
	movq	%rax, -328(%rbp)
	movl	$0, %eax
	movq	%rax, -320(%rbp)
	movl	$0, %eax
	movq	%rax, -312(%rbp)
	movl	$0, %eax
	movq	%rax, -304(%rbp)
	movl	$0, %eax
	movq	%rax, -296(%rbp)
	movl	$0, %eax
	movq	%rax, -288(%rbp)
	.loc 4 937 0
	movl	$0, %eax
	movq	%rax, -280(%rbp)
	movl	$0, %eax
	movq	%rax, -272(%rbp)
	movl	$0, %eax
	movq	%rax, -264(%rbp)
	movl	$0, %eax
	movq	%rax, -256(%rbp)
	movl	$0, %eax
	movq	%rax, -248(%rbp)
	movl	$0, %eax
	movq	%rax, -240(%rbp)
	movl	$0, %eax
	movq	%rax, -232(%rbp)
	movl	$0, %eax
	movq	%rax, -224(%rbp)
	.loc 4 939 0
	cmpl	$0, -36(%rbp)
	setg	%al
	movzbl	%al, %eax
	addl	%eax, -24(%rbp)
	.loc 4 940 0
	movl	$0, -40(%rbp)
	jmp	.L477
.L478:
	.loc 4 941 0
	movq	-360(%rbp), %rdx
	movl	-40(%rbp), %eax
	cltq
	salq	$2, %rax
	addq	-56(%rbp), %rax
	movl	(%rax), %eax
	cltq
	salq	$3, %rax
	movq	%rax, %rcx
	salq	$4, %rcx
	movq	%rcx, %rbx
	subq	%rax, %rbx
	movq	%rbx, %rax
	leaq	(%rdx,%rax), %rax
	movq	%rax, -216(%rbp)
	.loc 4 942 0
	movq	-216(%rbp), %rax
	movq	(%rax), %rax
	movq	%rax, -208(%rbp)
	movq	-216(%rbp), %rax
	addq	$8, %rax
	movq	(%rax), %rax
	movq	%rax, -200(%rbp)
	movq	-216(%rbp), %rax
	addq	$16, %rax
	movq	(%rax), %rax
	movq	%rax, -192(%rbp)
	movq	-216(%rbp), %rax
	addq	$24, %rax
	movq	(%rax), %rax
	movq	%rax, -184(%rbp)
	movq	-216(%rbp), %rax
	addq	$32, %rax
	movq	(%rax), %rax
	movq	%rax, -176(%rbp)
	movq	-216(%rbp), %rax
	addq	$40, %rax
	movq	(%rax), %rax
	movq	%rax, -168(%rbp)
	movq	-216(%rbp), %rax
	addq	$48, %rax
	movq	(%rax), %rax
	movq	%rax, -160(%rbp)
	.loc 4 943 0
	movq	-216(%rbp), %rax
	addq	$56, %rax
	movq	(%rax), %rax
	movq	%rax, -152(%rbp)
	movq	-216(%rbp), %rax
	addq	$64, %rax
	movq	(%rax), %rax
	movq	%rax, -144(%rbp)
	movq	-216(%rbp), %rax
	addq	$72, %rax
	movq	(%rax), %rax
	movq	%rax, -136(%rbp)
	movq	-216(%rbp), %rax
	addq	$80, %rax
	movq	(%rax), %rax
	movq	%rax, -128(%rbp)
	movq	-216(%rbp), %rax
	addq	$88, %rax
	movq	(%rax), %rax
	movq	%rax, -120(%rbp)
	movq	-216(%rbp), %rax
	addq	$96, %rax
	movq	(%rax), %rax
	movq	%rax, -112(%rbp)
	movq	-216(%rbp), %rax
	addq	$104, %rax
	movq	(%rax), %rax
	movq	%rax, -104(%rbp)
	movq	-216(%rbp), %rax
	addq	$112, %rax
	movq	(%rax), %rax
	movq	%rax, -96(%rbp)
	.loc 4 945 0
	movq	-88(%rbp), %rax
	vmovsd	(%rax), %xmm0
	vmulsd	-208(%rbp), %xmm0, %xmm1
	movq	-88(%rbp), %rax
	addq	$120, %rax
	vmovsd	(%rax), %xmm0
	vmulsd	-200(%rbp), %xmm0, %xmm0
	vaddsd	%xmm0, %xmm1, %xmm1
	movq	-88(%rbp), %rax
	addq	$240, %rax
	vmovsd	(%rax), %xmm0
	vmulsd	-192(%rbp), %xmm0, %xmm0
	vaddsd	%xmm0, %xmm1, %xmm1
	movq	-88(%rbp), %rax
	addq	$360, %rax
	vmovsd	(%rax), %xmm0
	vmulsd	-184(%rbp), %xmm0, %xmm0
	vaddsd	%xmm0, %xmm1, %xmm1
	movq	-88(%rbp), %rax
	addq	$480, %rax
	vmovsd	(%rax), %xmm0
	vmulsd	-176(%rbp), %xmm0, %xmm0
	vaddsd	%xmm0, %xmm1, %xmm1
	movq	-88(%rbp), %rax
	addq	$600, %rax
	vmovsd	(%rax), %xmm0
	vmulsd	-168(%rbp), %xmm0, %xmm0
	vaddsd	%xmm0, %xmm1, %xmm1
	movq	-88(%rbp), %rax
	addq	$720, %rax
	vmovsd	(%rax), %xmm0
	vmulsd	-160(%rbp), %xmm0, %xmm0
	vaddsd	%xmm0, %xmm1, %xmm1
	movq	-88(%rbp), %rax
	addq	$840, %rax
	vmovsd	(%rax), %xmm0
	vmulsd	-152(%rbp), %xmm0, %xmm0
	vaddsd	%xmm0, %xmm1, %xmm1
	movq	-88(%rbp), %rax
	addq	$960, %rax
	vmovsd	(%rax), %xmm0
	vmulsd	-144(%rbp), %xmm0, %xmm0
	vaddsd	%xmm0, %xmm1, %xmm1
	movq	-88(%rbp), %rax
	addq	$1080, %rax
	vmovsd	(%rax), %xmm0
	vmulsd	-136(%rbp), %xmm0, %xmm0
	vaddsd	%xmm0, %xmm1, %xmm1
	movq	-88(%rbp), %rax
	addq	$1200, %rax
	vmovsd	(%rax), %xmm0
	vmulsd	-128(%rbp), %xmm0, %xmm0
	vaddsd	%xmm0, %xmm1, %xmm1
	movq	-88(%rbp), %rax
	addq	$1320, %rax
	vmovsd	(%rax), %xmm0
	vmulsd	-120(%rbp), %xmm0, %xmm0
	vaddsd	%xmm0, %xmm1, %xmm1
	movq	-88(%rbp), %rax
	addq	$1440, %rax
	vmovsd	(%rax), %xmm0
	vmulsd	-112(%rbp), %xmm0, %xmm0
	vaddsd	%xmm0, %xmm1, %xmm1
	movq	-88(%rbp), %rax
	addq	$1560, %rax
	vmovsd	(%rax), %xmm0
	vmulsd	-104(%rbp), %xmm0, %xmm0
	vaddsd	%xmm0, %xmm1, %xmm1
	movq	-88(%rbp), %rax
	addq	$1680, %rax
	vmovsd	(%rax), %xmm0
	vmulsd	-96(%rbp), %xmm0, %xmm0
	vaddsd	%xmm0, %xmm1, %xmm0
	vmovsd	-336(%rbp), %xmm1
	vaddsd	%xmm0, %xmm1, %xmm0
	vmovsd	%xmm0, -336(%rbp)
	.loc 4 946 0
	movq	-88(%rbp), %rax
	addq	$8, %rax
	vmovsd	(%rax), %xmm0
	vmulsd	-208(%rbp), %xmm0, %xmm1
	movq	-88(%rbp), %rax
	subq	$-128, %rax
	vmovsd	(%rax), %xmm0
	vmulsd	-200(%rbp), %xmm0, %xmm0
	vaddsd	%xmm0, %xmm1, %xmm1
	movq	-88(%rbp), %rax
	addq	$248, %rax
	vmovsd	(%rax), %xmm0
	vmulsd	-192(%rbp), %xmm0, %xmm0
	vaddsd	%xmm0, %xmm1, %xmm1
	movq	-88(%rbp), %rax
	addq	$368, %rax
	vmovsd	(%rax), %xmm0
	vmulsd	-184(%rbp), %xmm0, %xmm0
	vaddsd	%xmm0, %xmm1, %xmm1
	movq	-88(%rbp), %rax
	addq	$488, %rax
	vmovsd	(%rax), %xmm0
	vmulsd	-176(%rbp), %xmm0, %xmm0
	vaddsd	%xmm0, %xmm1, %xmm1
	movq	-88(%rbp), %rax
	addq	$608, %rax
	vmovsd	(%rax), %xmm0
	vmulsd	-168(%rbp), %xmm0, %xmm0
	vaddsd	%xmm0, %xmm1, %xmm1
	movq	-88(%rbp), %rax
	addq	$728, %rax
	vmovsd	(%rax), %xmm0
	vmulsd	-160(%rbp), %xmm0, %xmm0
	vaddsd	%xmm0, %xmm1, %xmm1
	movq	-88(%rbp), %rax
	addq	$848, %rax
	vmovsd	(%rax), %xmm0
	vmulsd	-152(%rbp), %xmm0, %xmm0
	vaddsd	%xmm0, %xmm1, %xmm1
	movq	-88(%rbp), %rax
	addq	$968, %rax
	vmovsd	(%rax), %xmm0
	vmulsd	-144(%rbp), %xmm0, %xmm0
	vaddsd	%xmm0, %xmm1, %xmm1
	movq	-88(%rbp), %rax
	addq	$1088, %rax
	vmovsd	(%rax), %xmm0
	vmulsd	-136(%rbp), %xmm0, %xmm0
	vaddsd	%xmm0, %xmm1, %xmm1
	movq	-88(%rbp), %rax
	addq	$1208, %rax
	vmovsd	(%rax), %xmm0
	vmulsd	-128(%rbp), %xmm0, %xmm0
	vaddsd	%xmm0, %xmm1, %xmm1
	movq	-88(%rbp), %rax
	addq	$1328, %rax
	vmovsd	(%rax), %xmm0
	vmulsd	-120(%rbp), %xmm0, %xmm0
	vaddsd	%xmm0, %xmm1, %xmm1
	movq	-88(%rbp), %rax
	addq	$1448, %rax
	vmovsd	(%rax), %xmm0
	vmulsd	-112(%rbp), %xmm0, %xmm0
	vaddsd	%xmm0, %xmm1, %xmm1
	movq	-88(%rbp), %rax
	addq	$1568, %rax
	vmovsd	(%rax), %xmm0
	vmulsd	-104(%rbp), %xmm0, %xmm0
	vaddsd	%xmm0, %xmm1, %xmm1
	movq	-88(%rbp), %rax
	addq	$1688, %rax
	vmovsd	(%rax), %xmm0
	vmulsd	-96(%rbp), %xmm0, %xmm0
	vaddsd	%xmm0, %xmm1, %xmm0
	vmovsd	-328(%rbp), %xmm1
	vaddsd	%xmm0, %xmm1, %xmm0
	vmovsd	%xmm0, -328(%rbp)
	.loc 4 947 0
	movq	-88(%rbp), %rax
	addq	$16, %rax
	vmovsd	(%rax), %xmm0
	vmulsd	-208(%rbp), %xmm0, %xmm1
	movq	-88(%rbp), %rax
	addq	$136, %rax
	vmovsd	(%rax), %xmm0
	vmulsd	-200(%rbp), %xmm0, %xmm0
	vaddsd	%xmm0, %xmm1, %xmm1
	movq	-88(%rbp), %rax
	addq	$256, %rax
	vmovsd	(%rax), %xmm0
	vmulsd	-192(%rbp), %xmm0, %xmm0
	vaddsd	%xmm0, %xmm1, %xmm1
	movq	-88(%rbp), %rax
	addq	$376, %rax
	vmovsd	(%rax), %xmm0
	vmulsd	-184(%rbp), %xmm0, %xmm0
	vaddsd	%xmm0, %xmm1, %xmm1
	movq	-88(%rbp), %rax
	addq	$496, %rax
	vmovsd	(%rax), %xmm0
	vmulsd	-176(%rbp), %xmm0, %xmm0
	vaddsd	%xmm0, %xmm1, %xmm1
	movq	-88(%rbp), %rax
	addq	$616, %rax
	vmovsd	(%rax), %xmm0
	vmulsd	-168(%rbp), %xmm0, %xmm0
	vaddsd	%xmm0, %xmm1, %xmm1
	movq	-88(%rbp), %rax
	addq	$736, %rax
	vmovsd	(%rax), %xmm0
	vmulsd	-160(%rbp), %xmm0, %xmm0
	vaddsd	%xmm0, %xmm1, %xmm1
	movq	-88(%rbp), %rax
	addq	$856, %rax
	vmovsd	(%rax), %xmm0
	vmulsd	-152(%rbp), %xmm0, %xmm0
	vaddsd	%xmm0, %xmm1, %xmm1
	movq	-88(%rbp), %rax
	addq	$976, %rax
	vmovsd	(%rax), %xmm0
	vmulsd	-144(%rbp), %xmm0, %xmm0
	vaddsd	%xmm0, %xmm1, %xmm1
	movq	-88(%rbp), %rax
	addq	$1096, %rax
	vmovsd	(%rax), %xmm0
	vmulsd	-136(%rbp), %xmm0, %xmm0
	vaddsd	%xmm0, %xmm1, %xmm1
	movq	-88(%rbp), %rax
	addq	$1216, %rax
	vmovsd	(%rax), %xmm0
	vmulsd	-128(%rbp), %xmm0, %xmm0
	vaddsd	%xmm0, %xmm1, %xmm1
	movq	-88(%rbp), %rax
	addq	$1336, %rax
	vmovsd	(%rax), %xmm0
	vmulsd	-120(%rbp), %xmm0, %xmm0
	vaddsd	%xmm0, %xmm1, %xmm1
	movq	-88(%rbp), %rax
	addq	$1456, %rax
	vmovsd	(%rax), %xmm0
	vmulsd	-112(%rbp), %xmm0, %xmm0
	vaddsd	%xmm0, %xmm1, %xmm1
	movq	-88(%rbp), %rax
	addq	$1576, %rax
	vmovsd	(%rax), %xmm0
	vmulsd	-104(%rbp), %xmm0, %xmm0
	vaddsd	%xmm0, %xmm1, %xmm1
	movq	-88(%rbp), %rax
	addq	$1696, %rax
	vmovsd	(%rax), %xmm0
	vmulsd	-96(%rbp), %xmm0, %xmm0
	vaddsd	%xmm0, %xmm1, %xmm0
	vmovsd	-320(%rbp), %xmm1
	vaddsd	%xmm0, %xmm1, %xmm0
	vmovsd	%xmm0, -320(%rbp)
	.loc 4 948 0
	movq	-88(%rbp), %rax
	addq	$24, %rax
	vmovsd	(%rax), %xmm0
	vmulsd	-208(%rbp), %xmm0, %xmm1
	movq	-88(%rbp), %rax
	addq	$144, %rax
	vmovsd	(%rax), %xmm0
	vmulsd	-200(%rbp), %xmm0, %xmm0
	vaddsd	%xmm0, %xmm1, %xmm1
	movq	-88(%rbp), %rax
	addq	$264, %rax
	vmovsd	(%rax), %xmm0
	vmulsd	-192(%rbp), %xmm0, %xmm0
